ARM GAS  C:\Users\NRAY~1.PRI\AppData\Local\Temp\ccCxBLAh.s 			page 1


   1              		.cpu cortex-m0
   2              		.fpu softvfp
   3              		.eabi_attribute 20, 1
   4              		.eabi_attribute 21, 1
   5              		.eabi_attribute 23, 3
   6              		.eabi_attribute 24, 1
   7              		.eabi_attribute 25, 1
   8              		.eabi_attribute 26, 1
   9              		.eabi_attribute 30, 1
  10              		.eabi_attribute 34, 0
  11              		.eabi_attribute 18, 4
  12              		.code	16
  13              		.file	"ADC_1.c"
  14              		.text
  15              	.Ltext0:
  16              		.cfi_sections	.debug_frame
  17              		.section	.text.ADC_1_Init,"ax",%progbits
  18              		.align	2
  19              		.global	ADC_1_Init
  20              		.code	16
  21              		.thumb_func
  22              		.type	ADC_1_Init, %function
  23              	ADC_1_Init:
  24              	.LFB2:
  25              		.file 1 ".\\Generated_Source\\PSoC4\\ADC_1.c"
   1:.\Generated_Source\PSoC4/ADC_1.c **** /*******************************************************************************
   2:.\Generated_Source\PSoC4/ADC_1.c **** * File Name: ADC_1.c
   3:.\Generated_Source\PSoC4/ADC_1.c **** * Version 2.30
   4:.\Generated_Source\PSoC4/ADC_1.c **** *
   5:.\Generated_Source\PSoC4/ADC_1.c **** * Description:
   6:.\Generated_Source\PSoC4/ADC_1.c **** *  This file provides the source code to the API for the Sequencing Successive
   7:.\Generated_Source\PSoC4/ADC_1.c **** *  Approximation ADC Component Component.
   8:.\Generated_Source\PSoC4/ADC_1.c **** *
   9:.\Generated_Source\PSoC4/ADC_1.c **** * Note:
  10:.\Generated_Source\PSoC4/ADC_1.c **** *
  11:.\Generated_Source\PSoC4/ADC_1.c **** ********************************************************************************
  12:.\Generated_Source\PSoC4/ADC_1.c **** * Copyright 2008-2015, Cypress Semiconductor Corporation.  All rights reserved.
  13:.\Generated_Source\PSoC4/ADC_1.c **** * You may use this file only in accordance with the license, terms, conditions,
  14:.\Generated_Source\PSoC4/ADC_1.c **** * disclaimers, and limitations in the end user license agreement accompanying
  15:.\Generated_Source\PSoC4/ADC_1.c **** * the software package with which this file was provided.
  16:.\Generated_Source\PSoC4/ADC_1.c **** *******************************************************************************/
  17:.\Generated_Source\PSoC4/ADC_1.c **** 
  18:.\Generated_Source\PSoC4/ADC_1.c **** #include "ADC_1.h"
  19:.\Generated_Source\PSoC4/ADC_1.c **** 
  20:.\Generated_Source\PSoC4/ADC_1.c **** 
  21:.\Generated_Source\PSoC4/ADC_1.c **** /***************************************
  22:.\Generated_Source\PSoC4/ADC_1.c **** * Global data allocation
  23:.\Generated_Source\PSoC4/ADC_1.c **** ***************************************/
  24:.\Generated_Source\PSoC4/ADC_1.c **** uint8 ADC_1_initVar = 0u;
  25:.\Generated_Source\PSoC4/ADC_1.c **** volatile int16 ADC_1_offset[ADC_1_TOTAL_CHANNELS_NUM];
  26:.\Generated_Source\PSoC4/ADC_1.c **** volatile int32 ADC_1_countsPer10Volt[ADC_1_TOTAL_CHANNELS_NUM];   /* Gain compensation */
  27:.\Generated_Source\PSoC4/ADC_1.c **** 
  28:.\Generated_Source\PSoC4/ADC_1.c **** 
  29:.\Generated_Source\PSoC4/ADC_1.c **** /***************************************
  30:.\Generated_Source\PSoC4/ADC_1.c **** * Local data allocation
  31:.\Generated_Source\PSoC4/ADC_1.c **** ***************************************/
  32:.\Generated_Source\PSoC4/ADC_1.c **** /* Channels configuration generated by customiser */
ARM GAS  C:\Users\NRAY~1.PRI\AppData\Local\Temp\ccCxBLAh.s 			page 2


  33:.\Generated_Source\PSoC4/ADC_1.c **** static const uint32 CYCODE ADC_1_channelsConfig[] = { 0x00000400u, 0x00000400u };
  34:.\Generated_Source\PSoC4/ADC_1.c **** 
  35:.\Generated_Source\PSoC4/ADC_1.c **** 
  36:.\Generated_Source\PSoC4/ADC_1.c **** /*******************************************************************************
  37:.\Generated_Source\PSoC4/ADC_1.c **** * Function Name: ADC_1_Start
  38:.\Generated_Source\PSoC4/ADC_1.c **** ********************************************************************************
  39:.\Generated_Source\PSoC4/ADC_1.c **** *
  40:.\Generated_Source\PSoC4/ADC_1.c **** * Summary:
  41:.\Generated_Source\PSoC4/ADC_1.c **** *  Performs all required initialization for this component
  42:.\Generated_Source\PSoC4/ADC_1.c **** *  and enables the power. The power will be set to the appropriate
  43:.\Generated_Source\PSoC4/ADC_1.c **** *  power based on the clock frequency.
  44:.\Generated_Source\PSoC4/ADC_1.c **** *
  45:.\Generated_Source\PSoC4/ADC_1.c **** * Parameters:
  46:.\Generated_Source\PSoC4/ADC_1.c **** *  None.
  47:.\Generated_Source\PSoC4/ADC_1.c **** *
  48:.\Generated_Source\PSoC4/ADC_1.c **** * Return:
  49:.\Generated_Source\PSoC4/ADC_1.c **** *  None.
  50:.\Generated_Source\PSoC4/ADC_1.c **** *
  51:.\Generated_Source\PSoC4/ADC_1.c **** * Global variables:
  52:.\Generated_Source\PSoC4/ADC_1.c **** *  The ADC_1_initVar variable is used to indicate when/if initial
  53:.\Generated_Source\PSoC4/ADC_1.c **** *  configuration of this component has happened. The variable is initialized to
  54:.\Generated_Source\PSoC4/ADC_1.c **** *  zero and set to 1 the first time ADC_Start() is called. This allows for
  55:.\Generated_Source\PSoC4/ADC_1.c **** *  component Re-Start without re-initialization in all subsequent calls to the
  56:.\Generated_Source\PSoC4/ADC_1.c **** *  ADC_1_Start() routine.
  57:.\Generated_Source\PSoC4/ADC_1.c **** *  If re-initialization of the component is required the variable should be set
  58:.\Generated_Source\PSoC4/ADC_1.c **** *  to zero before call of ADC_1_Start() routine, or the user may call
  59:.\Generated_Source\PSoC4/ADC_1.c **** *  ADC_1_Init() and ADC_1_Enable() as done in the
  60:.\Generated_Source\PSoC4/ADC_1.c **** *  ADC_1_Start() routine.
  61:.\Generated_Source\PSoC4/ADC_1.c **** *
  62:.\Generated_Source\PSoC4/ADC_1.c **** *******************************************************************************/
  63:.\Generated_Source\PSoC4/ADC_1.c **** void ADC_1_Start(void)
  64:.\Generated_Source\PSoC4/ADC_1.c **** {
  65:.\Generated_Source\PSoC4/ADC_1.c ****     /* If not Initialized then initialize all required hardware and software */
  66:.\Generated_Source\PSoC4/ADC_1.c ****     if(ADC_1_initVar == 0u)
  67:.\Generated_Source\PSoC4/ADC_1.c ****     {
  68:.\Generated_Source\PSoC4/ADC_1.c ****         ADC_1_Init();
  69:.\Generated_Source\PSoC4/ADC_1.c ****         ADC_1_initVar = 1u;
  70:.\Generated_Source\PSoC4/ADC_1.c ****     }
  71:.\Generated_Source\PSoC4/ADC_1.c ****     ADC_1_Enable();
  72:.\Generated_Source\PSoC4/ADC_1.c **** }
  73:.\Generated_Source\PSoC4/ADC_1.c **** 
  74:.\Generated_Source\PSoC4/ADC_1.c **** 
  75:.\Generated_Source\PSoC4/ADC_1.c **** /*******************************************************************************
  76:.\Generated_Source\PSoC4/ADC_1.c **** * Function Name: ADC_1_Init
  77:.\Generated_Source\PSoC4/ADC_1.c **** ********************************************************************************
  78:.\Generated_Source\PSoC4/ADC_1.c **** *
  79:.\Generated_Source\PSoC4/ADC_1.c **** * Summary:
  80:.\Generated_Source\PSoC4/ADC_1.c **** *  Initialize component's parameters to the parameters set by user in the
  81:.\Generated_Source\PSoC4/ADC_1.c **** *  customizer of the component placed onto schematic. Usually called in
  82:.\Generated_Source\PSoC4/ADC_1.c **** *  ADC_1_Start().
  83:.\Generated_Source\PSoC4/ADC_1.c **** *
  84:.\Generated_Source\PSoC4/ADC_1.c **** * Parameters:
  85:.\Generated_Source\PSoC4/ADC_1.c **** *  None.
  86:.\Generated_Source\PSoC4/ADC_1.c **** *
  87:.\Generated_Source\PSoC4/ADC_1.c **** * Return:
  88:.\Generated_Source\PSoC4/ADC_1.c **** *  None.
  89:.\Generated_Source\PSoC4/ADC_1.c **** *
ARM GAS  C:\Users\NRAY~1.PRI\AppData\Local\Temp\ccCxBLAh.s 			page 3


  90:.\Generated_Source\PSoC4/ADC_1.c **** * Global variables:
  91:.\Generated_Source\PSoC4/ADC_1.c **** *  The ADC_1_offset variable is initialized.
  92:.\Generated_Source\PSoC4/ADC_1.c **** *
  93:.\Generated_Source\PSoC4/ADC_1.c **** *******************************************************************************/
  94:.\Generated_Source\PSoC4/ADC_1.c **** void ADC_1_Init(void)
  95:.\Generated_Source\PSoC4/ADC_1.c **** {
  26              		.loc 1 95 0
  27              		.cfi_startproc
  28 0000 10B5     		push	{r4, lr}
  29              		.cfi_def_cfa_offset 8
  30              		.cfi_offset 4, -8
  31              		.cfi_offset 14, -4
  96:.\Generated_Source\PSoC4/ADC_1.c ****     uint32 chNum;
  97:.\Generated_Source\PSoC4/ADC_1.c ****     uint32 tmpRegVal;
  98:.\Generated_Source\PSoC4/ADC_1.c ****     int32 counts;
  99:.\Generated_Source\PSoC4/ADC_1.c **** 
 100:.\Generated_Source\PSoC4/ADC_1.c ****     #if(ADC_1_TOTAL_CHANNELS_NUM > 1u)
 101:.\Generated_Source\PSoC4/ADC_1.c ****         static const uint8 CYCODE ADC_1_InputsPlacement[] =
 102:.\Generated_Source\PSoC4/ADC_1.c ****         {
 103:.\Generated_Source\PSoC4/ADC_1.c ****             (uint8)(ADC_1_cy_psoc4_sarmux_8__CH_0_PORT << 4u) |
 104:.\Generated_Source\PSoC4/ADC_1.c ****             (uint8)ADC_1_cy_psoc4_sarmux_8__CH_0_PIN
 105:.\Generated_Source\PSoC4/ADC_1.c ****             ,(uint8)(ADC_1_cy_psoc4_sarmux_8__CH_1_PORT << 4u) |
 106:.\Generated_Source\PSoC4/ADC_1.c ****              (uint8)ADC_1_cy_psoc4_sarmux_8__CH_1_PIN
 107:.\Generated_Source\PSoC4/ADC_1.c ****             #if(ADC_1_TOTAL_CHANNELS_NUM > 2u)
 108:.\Generated_Source\PSoC4/ADC_1.c ****                 ,(uint8)(ADC_1_cy_psoc4_sarmux_8__CH_2_PORT << 4u) |
 109:.\Generated_Source\PSoC4/ADC_1.c ****                  (uint8)ADC_1_cy_psoc4_sarmux_8__CH_2_PIN
 110:.\Generated_Source\PSoC4/ADC_1.c ****             #endif /* End ADC_1_TOTAL_CHANNELS_NUM > 2u */
 111:.\Generated_Source\PSoC4/ADC_1.c ****             #if(ADC_1_TOTAL_CHANNELS_NUM > 3u)
 112:.\Generated_Source\PSoC4/ADC_1.c ****                 ,(uint8)(ADC_1_cy_psoc4_sarmux_8__CH_3_PORT << 4u) |
 113:.\Generated_Source\PSoC4/ADC_1.c ****                  (uint8)ADC_1_cy_psoc4_sarmux_8__CH_3_PIN
 114:.\Generated_Source\PSoC4/ADC_1.c ****             #endif /* End ADC_1_TOTAL_CHANNELS_NUM > 3u */
 115:.\Generated_Source\PSoC4/ADC_1.c ****             #if(ADC_1_TOTAL_CHANNELS_NUM > 4u)
 116:.\Generated_Source\PSoC4/ADC_1.c ****                 ,(uint8)(ADC_1_cy_psoc4_sarmux_8__CH_4_PORT << 4u) |
 117:.\Generated_Source\PSoC4/ADC_1.c ****                  (uint8)ADC_1_cy_psoc4_sarmux_8__CH_4_PIN
 118:.\Generated_Source\PSoC4/ADC_1.c ****             #endif /* End ADC_1_TOTAL_CHANNELS_NUM > 4u */
 119:.\Generated_Source\PSoC4/ADC_1.c ****             #if(ADC_1_TOTAL_CHANNELS_NUM > 5u)
 120:.\Generated_Source\PSoC4/ADC_1.c ****                 ,(uint8)(ADC_1_cy_psoc4_sarmux_8__CH_5_PORT << 4u) |
 121:.\Generated_Source\PSoC4/ADC_1.c ****                  (uint8)ADC_1_cy_psoc4_sarmux_8__CH_5_PIN
 122:.\Generated_Source\PSoC4/ADC_1.c ****             #endif /* End ADC_1_TOTAL_CHANNELS_NUM > 5u */
 123:.\Generated_Source\PSoC4/ADC_1.c ****             #if(ADC_1_TOTAL_CHANNELS_NUM > 6u)
 124:.\Generated_Source\PSoC4/ADC_1.c ****                 ,(uint8)(ADC_1_cy_psoc4_sarmux_8__CH_6_PORT << 4u) |
 125:.\Generated_Source\PSoC4/ADC_1.c ****                  (uint8)ADC_1_cy_psoc4_sarmux_8__CH_6_PIN
 126:.\Generated_Source\PSoC4/ADC_1.c ****             #endif /* End ADC_1_TOTAL_CHANNELS_NUM > 6u */
 127:.\Generated_Source\PSoC4/ADC_1.c ****             #if(ADC_1_TOTAL_CHANNELS_NUM > 7u)
 128:.\Generated_Source\PSoC4/ADC_1.c ****                 ,(uint8)(ADC_1_cy_psoc4_sarmux_8__CH_7_PORT << 4u) |
 129:.\Generated_Source\PSoC4/ADC_1.c ****                  (uint8)ADC_1_cy_psoc4_sarmux_8__CH_7_PIN
 130:.\Generated_Source\PSoC4/ADC_1.c ****             #endif /* End ADC_1_TOTAL_CHANNELS_NUM > 7u */
 131:.\Generated_Source\PSoC4/ADC_1.c ****             #if(ADC_1_TOTAL_CHANNELS_NUM > 8u)
 132:.\Generated_Source\PSoC4/ADC_1.c ****                 ,(uint8)(ADC_1_cy_psoc4_sarmux_8__CH_8_PORT << 4u) |
 133:.\Generated_Source\PSoC4/ADC_1.c ****                  (uint8)ADC_1_cy_psoc4_sarmux_8__CH_8_PIN
 134:.\Generated_Source\PSoC4/ADC_1.c ****             #endif /* End ADC_1_TOTAL_CHANNELS_NUM > 8u */
 135:.\Generated_Source\PSoC4/ADC_1.c ****             #if(ADC_1_TOTAL_CHANNELS_NUM > 9u)
 136:.\Generated_Source\PSoC4/ADC_1.c ****                 ,(uint8)(ADC_1_cy_psoc4_sarmux_8__CH_9_PORT << 4u) |
 137:.\Generated_Source\PSoC4/ADC_1.c ****                  (uint8)ADC_1_cy_psoc4_sarmux_8__CH_9_PIN
 138:.\Generated_Source\PSoC4/ADC_1.c ****             #endif /* End ADC_1_TOTAL_CHANNELS_NUM > 9u */
 139:.\Generated_Source\PSoC4/ADC_1.c ****             #if(ADC_1_TOTAL_CHANNELS_NUM > 10u)
 140:.\Generated_Source\PSoC4/ADC_1.c ****                 ,(uint8)(ADC_1_cy_psoc4_sarmux_8__CH_10_PORT << 4u) |
ARM GAS  C:\Users\NRAY~1.PRI\AppData\Local\Temp\ccCxBLAh.s 			page 4


 141:.\Generated_Source\PSoC4/ADC_1.c ****                  (uint8)ADC_1_cy_psoc4_sarmux_8__CH_10_PIN
 142:.\Generated_Source\PSoC4/ADC_1.c ****             #endif /* End ADC_1_TOTAL_CHANNELS_NUM > 10u */
 143:.\Generated_Source\PSoC4/ADC_1.c ****             #if(ADC_1_TOTAL_CHANNELS_NUM > 11u)
 144:.\Generated_Source\PSoC4/ADC_1.c ****                 ,(uint8)(ADC_1_cy_psoc4_sarmux_8__CH_11_PORT << 4u) |
 145:.\Generated_Source\PSoC4/ADC_1.c ****                  (uint8)ADC_1_cy_psoc4_sarmux_8__CH_11_PIN
 146:.\Generated_Source\PSoC4/ADC_1.c ****             #endif /* End ADC_1_TOTAL_CHANNELS_NUM > 11u */
 147:.\Generated_Source\PSoC4/ADC_1.c ****             #if(ADC_1_TOTAL_CHANNELS_NUM > 12u)
 148:.\Generated_Source\PSoC4/ADC_1.c ****                 ,(uint8)(ADC_1_cy_psoc4_sarmux_8__CH_12_PORT << 4u) |
 149:.\Generated_Source\PSoC4/ADC_1.c ****                  (uint8)ADC_1_cy_psoc4_sarmux_8__CH_12_PIN
 150:.\Generated_Source\PSoC4/ADC_1.c ****             #endif /* End ADC_1_TOTAL_CHANNELS_NUM > 12u */
 151:.\Generated_Source\PSoC4/ADC_1.c ****             #if(ADC_1_TOTAL_CHANNELS_NUM > 13u)
 152:.\Generated_Source\PSoC4/ADC_1.c ****                 ,(uint8)(ADC_1_cy_psoc4_sarmux_8__CH_13_PORT << 4u) |
 153:.\Generated_Source\PSoC4/ADC_1.c ****                  (uint8)ADC_1_cy_psoc4_sarmux_8__CH_13_PIN
 154:.\Generated_Source\PSoC4/ADC_1.c ****             #endif /* End ADC_1_TOTAL_CHANNELS_NUM > 13u */
 155:.\Generated_Source\PSoC4/ADC_1.c ****             #if(ADC_1_TOTAL_CHANNELS_NUM > 14u)
 156:.\Generated_Source\PSoC4/ADC_1.c ****                 ,(uint8)(ADC_1_cy_psoc4_sarmux_8__CH_14_PORT << 4u) |
 157:.\Generated_Source\PSoC4/ADC_1.c ****                  (uint8)ADC_1_cy_psoc4_sarmux_8__CH_14_PIN
 158:.\Generated_Source\PSoC4/ADC_1.c ****             #endif /* End ADC_1_TOTAL_CHANNELS_NUM > 14u */
 159:.\Generated_Source\PSoC4/ADC_1.c ****             #if(ADC_1_TOTAL_CHANNELS_NUM > 15u)
 160:.\Generated_Source\PSoC4/ADC_1.c ****                 ,(uint8)(ADC_1_cy_psoc4_sarmux_8__CH_15_PORT << 4u) |
 161:.\Generated_Source\PSoC4/ADC_1.c ****                  (uint8)ADC_1_cy_psoc4_sarmux_8__CH_15_PIN
 162:.\Generated_Source\PSoC4/ADC_1.c ****             #endif /* End ADC_1_TOTAL_CHANNELS_NUM > 15u */
 163:.\Generated_Source\PSoC4/ADC_1.c ****             #if(ADC_1_TOTAL_CHANNELS_NUM > 16u)
 164:.\Generated_Source\PSoC4/ADC_1.c ****                 ,(uint8)(ADC_1_cy_psoc4_sarmux_8__CH_16_PORT << 4u) |
 165:.\Generated_Source\PSoC4/ADC_1.c ****                  (uint8)ADC_1_cy_psoc4_sarmux_8__CH_16_PIN
 166:.\Generated_Source\PSoC4/ADC_1.c ****             #endif /* End ADC_1_TOTAL_CHANNELS_NUM > 16u */
 167:.\Generated_Source\PSoC4/ADC_1.c ****         };
 168:.\Generated_Source\PSoC4/ADC_1.c ****     #endif /* End ADC_1_TOTAL_CHANNELS_NUM > 1u */
 169:.\Generated_Source\PSoC4/ADC_1.c **** 
 170:.\Generated_Source\PSoC4/ADC_1.c ****     #if(ADC_1_IRQ_REMOVE == 0u)
 171:.\Generated_Source\PSoC4/ADC_1.c ****         /* Start and set interrupt vector */
 172:.\Generated_Source\PSoC4/ADC_1.c ****         CyIntSetPriority(ADC_1_INTC_NUMBER, ADC_1_INTC_PRIOR_NUMBER);
  32              		.loc 1 172 0
  33 0002 1020     		mov	r0, #16
  34 0004 0321     		mov	r1, #3
  35 0006 FFF7FEFF 		bl	CyIntSetPriority
  36              	.LVL0:
 173:.\Generated_Source\PSoC4/ADC_1.c ****         (void)CyIntSetVector(ADC_1_INTC_NUMBER, &ADC_1_ISR);
  37              		.loc 1 173 0
  38 000a 1020     		mov	r0, #16
  39 000c 5049     		ldr	r1, .L14
  40 000e FFF7FEFF 		bl	CyIntSetVector
  41              	.LVL1:
 174:.\Generated_Source\PSoC4/ADC_1.c ****     #endif   /* End ADC_1_IRQ_REMOVE */
 175:.\Generated_Source\PSoC4/ADC_1.c **** 
 176:.\Generated_Source\PSoC4/ADC_1.c ****     /* Init SAR and MUX registers */
 177:.\Generated_Source\PSoC4/ADC_1.c ****     ADC_1_SAR_CHAN_EN_REG = ADC_1_DEFAULT_EN_CHANNELS;
  42              		.loc 1 177 0
  43 0012 0122     		mov	r2, #1
  44 0014 4F4B     		ldr	r3, .L14+4
  45 0016 1A60     		str	r2, [r3]
 178:.\Generated_Source\PSoC4/ADC_1.c ****     ADC_1_SAR_CTRL_REG |= ADC_1_DEFAULT_CTRL_REG_CFG | 
 179:.\Generated_Source\PSoC4/ADC_1.c ****         /* Enable the SAR internal pump when global pump is enabled */
 180:.\Generated_Source\PSoC4/ADC_1.c ****         (((ADC_1_PUMP_CTRL_REG & ADC_1_PUMP_CTRL_ENABLED) != 0u) ? 
  46              		.loc 1 180 0
  47 0018 4F4B     		ldr	r3, .L14+8
  48 001a 1B68     		ldr	r3, [r3]
ARM GAS  C:\Users\NRAY~1.PRI\AppData\Local\Temp\ccCxBLAh.s 			page 5


 178:.\Generated_Source\PSoC4/ADC_1.c ****     ADC_1_SAR_CTRL_REG |= ADC_1_DEFAULT_CTRL_REG_CFG | 
  49              		.loc 1 178 0
  50 001c 002B     		cmp	r3, #0
  51 001e 01DA     		bge	.L12
  52 0020 4E49     		ldr	r1, .L14+12
  53 0022 00E0     		b	.L2
  54              	.L12:
  55 0024 4E49     		ldr	r1, .L14+16
  56              	.L2:
 178:.\Generated_Source\PSoC4/ADC_1.c ****     ADC_1_SAR_CTRL_REG |= ADC_1_DEFAULT_CTRL_REG_CFG | 
  57              		.loc 1 178 0 is_stmt 0 discriminator 4
  58 0026 4F4A     		ldr	r2, .L14+20
  59 0028 1368     		ldr	r3, [r2]
  60 002a 0B43     		orr	r3, r1
  61 002c 1360     		str	r3, [r2]
 181:.\Generated_Source\PSoC4/ADC_1.c ****         ADC_1_BOOSTPUMP_EN : 0u);
 182:.\Generated_Source\PSoC4/ADC_1.c ****     ADC_1_SAR_SAMPLE_CTRL_REG = ADC_1_DEFAULT_SAMPLE_CTRL_REG_CFG;
  62              		.loc 1 182 0 is_stmt 1 discriminator 4
  63 002e 4E4A     		ldr	r2, .L14+24
  64 0030 4E4B     		ldr	r3, .L14+28
  65 0032 1A60     		str	r2, [r3]
 183:.\Generated_Source\PSoC4/ADC_1.c ****     ADC_1_SAR_RANGE_THRES_REG = ADC_1_DEFAULT_RANGE_THRES_REG_CFG;
  66              		.loc 1 183 0 discriminator 4
  67 0034 4E4A     		ldr	r2, .L14+32
  68 0036 4F4B     		ldr	r3, .L14+36
  69 0038 1A60     		str	r2, [r3]
 184:.\Generated_Source\PSoC4/ADC_1.c ****     ADC_1_SAR_RANGE_COND_REG  = ADC_1_COMPARE_MODE;
  70              		.loc 1 184 0 discriminator 4
  71 003a 0023     		mov	r3, #0
  72 003c 4E4A     		ldr	r2, .L14+40
  73 003e 1360     		str	r3, [r2]
 185:.\Generated_Source\PSoC4/ADC_1.c ****     ADC_1_SAR_SAMPLE_TIME01_REG = ADC_1_DEFAULT_SAMPLE_TIME01_REG_CFG;
  74              		.loc 1 185 0 discriminator 4
  75 0040 4E4A     		ldr	r2, .L14+44
  76 0042 4F49     		ldr	r1, .L14+48
  77 0044 0A60     		str	r2, [r1]
 186:.\Generated_Source\PSoC4/ADC_1.c ****     ADC_1_SAR_SAMPLE_TIME23_REG = ADC_1_DEFAULT_SAMPLE_TIME23_REG_CFG;
  78              		.loc 1 186 0 discriminator 4
  79 0046 4F49     		ldr	r1, .L14+52
  80 0048 0A60     		str	r2, [r1]
 187:.\Generated_Source\PSoC4/ADC_1.c ****     
 188:.\Generated_Source\PSoC4/ADC_1.c ****     /* Connect Vm to VSSA when even one channel is single-ended or multiple channels configured */
 189:.\Generated_Source\PSoC4/ADC_1.c ****     #if(ADC_1_DEFAULT_MUX_SWITCH0 != 0u)
 190:.\Generated_Source\PSoC4/ADC_1.c ****         ADC_1_MUX_SWITCH0_REG |= ADC_1_DEFAULT_MUX_SWITCH0;
  81              		.loc 1 190 0 discriminator 4
  82 004a 4F4A     		ldr	r2, .L14+56
  83 004c 1168     		ldr	r1, [r2]
  84 004e 8020     		mov	r0, #128
  85 0050 4002     		lsl	r0, r0, #9
  86 0052 0143     		orr	r1, r0
  87 0054 1160     		str	r1, [r2]
 191:.\Generated_Source\PSoC4/ADC_1.c ****         /* Set MUX_HW_CTRL_VSSA in MUX_SWITCH_HW_CTRL when multiple channels enabled */
 192:.\Generated_Source\PSoC4/ADC_1.c ****         #if(ADC_1_TOTAL_CHANNELS_NUM > 1u)
 193:.\Generated_Source\PSoC4/ADC_1.c ****             ADC_1_MUX_SWITCH_HW_CTRL_REG |= ADC_1_DEFAULT_MUX_SWITCH0;
  88              		.loc 1 193 0 discriminator 4
  89 0056 4D49     		ldr	r1, .L14+60
  90 0058 0A68     		ldr	r2, [r1]
ARM GAS  C:\Users\NRAY~1.PRI\AppData\Local\Temp\ccCxBLAh.s 			page 6


  91 005a 0243     		orr	r2, r0
  92 005c 0A60     		str	r2, [r1]
 194:.\Generated_Source\PSoC4/ADC_1.c ****         #endif /* ADC_1_TOTAL_CHANNELS_NUM > 1u */
 195:.\Generated_Source\PSoC4/ADC_1.c ****     #endif /*ADC_1_CHANNELS_MODE !=0 */
 196:.\Generated_Source\PSoC4/ADC_1.c **** 
 197:.\Generated_Source\PSoC4/ADC_1.c ****     ADC_1_SAR_SATURATE_INTR_MASK_REG = 0u;
  93              		.loc 1 197 0 discriminator 4
  94 005e 4C4A     		ldr	r2, .L14+64
  95 0060 1360     		str	r3, [r2]
 198:.\Generated_Source\PSoC4/ADC_1.c ****     ADC_1_SAR_RANGE_INTR_MASK_REG = 0u;
  96              		.loc 1 198 0 discriminator 4
  97 0062 4C4A     		ldr	r2, .L14+68
  98 0064 1360     		str	r3, [r2]
 199:.\Generated_Source\PSoC4/ADC_1.c ****     ADC_1_SAR_INTR_MASK_REG = ADC_1_SAR_INTR_MASK;
  99              		.loc 1 199 0 discriminator 4
 100 0066 1122     		mov	r2, #17
 101 0068 4B4B     		ldr	r3, .L14+72
 102 006a 1A60     		str	r2, [r3]
 200:.\Generated_Source\PSoC4/ADC_1.c **** 
 201:.\Generated_Source\PSoC4/ADC_1.c ****     #if(ADC_1_CY_SAR_IP_VER == ADC_1_CY_SAR_IP_VER0)
 202:.\Generated_Source\PSoC4/ADC_1.c ****         ADC_1_ANA_TRIM_REG = ADC_1_TRIM_COEF;
 203:.\Generated_Source\PSoC4/ADC_1.c ****     #endif /* (ADC_1_CY_SAR_IP_VER == ADC_1_CY_SAR_IP_VER0) */
 204:.\Generated_Source\PSoC4/ADC_1.c **** 
 205:.\Generated_Source\PSoC4/ADC_1.c ****     /* Read and modify default configuration based on characterization */
 206:.\Generated_Source\PSoC4/ADC_1.c ****     tmpRegVal = ADC_1_SAR_DFT_CTRL_REG;
 103              		.loc 1 206 0 discriminator 4
 104 006c 4B49     		ldr	r1, .L14+76
 105 006e 0A68     		ldr	r2, [r1]
 106              	.LVL2:
 207:.\Generated_Source\PSoC4/ADC_1.c ****     tmpRegVal &= (uint32)~ADC_1_DCEN;
 107              		.loc 1 207 0 discriminator 4
 108 0070 4B4B     		ldr	r3, .L14+80
 109 0072 1340     		and	r3, r2
 110              	.LVL3:
 208:.\Generated_Source\PSoC4/ADC_1.c ****     
 209:.\Generated_Source\PSoC4/ADC_1.c ****     #if(ADC_1_CY_SAR_IP_VER == ADC_1_CY_SAR_IP_VER0)
 210:.\Generated_Source\PSoC4/ADC_1.c ****         #if(ADC_1_NOMINAL_CLOCK_FREQ > (ADC_1_MAX_FREQUENCY / 2))
 211:.\Generated_Source\PSoC4/ADC_1.c ****             tmpRegVal |= ADC_1_SEL_CSEL_DFT_CHAR;
 212:.\Generated_Source\PSoC4/ADC_1.c ****         #else  /* clock speed < 9 Mhz */
 213:.\Generated_Source\PSoC4/ADC_1.c ****             tmpRegVal |= ADC_1_DLY_INC;
 214:.\Generated_Source\PSoC4/ADC_1.c ****         #endif /* clock speed > 9 Mhz */
 215:.\Generated_Source\PSoC4/ADC_1.c ****     #else
 216:.\Generated_Source\PSoC4/ADC_1.c ****         #if ((ADC_1_DEFAULT_VREF_SEL == ADC_1__INTERNAL1024) || \
 217:.\Generated_Source\PSoC4/ADC_1.c ****              (ADC_1_DEFAULT_VREF_SEL == ADC_1__INTERNALVREF))
 218:.\Generated_Source\PSoC4/ADC_1.c ****             tmpRegVal |= ADC_1_DLY_INC;
 111              		.loc 1 218 0 discriminator 4
 112 0074 0122     		mov	r2, #1
 113 0076 1343     		orr	r3, r2
 114              	.LVL4:
 219:.\Generated_Source\PSoC4/ADC_1.c ****         #else
 220:.\Generated_Source\PSoC4/ADC_1.c ****             tmpRegVal |= ADC_1_DCEN;
 221:.\Generated_Source\PSoC4/ADC_1.c ****             tmpRegVal &= (uint32)~ADC_1_DLY_INC;
 222:.\Generated_Source\PSoC4/ADC_1.c ****         #endif /* ((ADC_1_DEFAULT_VREF_SEL == ADC_1__INTERNAL1024) || \
 223:.\Generated_Source\PSoC4/ADC_1.c ****                    (ADC_1_DEFAULT_VREF_SEL == ADC_1__INTERNALVREF)) */
 224:.\Generated_Source\PSoC4/ADC_1.c ****     #endif /* (ADC_1_CY_SAR_IP_VER == ADC_1_CY_SAR_IP_VER0) */
 225:.\Generated_Source\PSoC4/ADC_1.c ****     
 226:.\Generated_Source\PSoC4/ADC_1.c ****     ADC_1_SAR_DFT_CTRL_REG = tmpRegVal;
ARM GAS  C:\Users\NRAY~1.PRI\AppData\Local\Temp\ccCxBLAh.s 			page 7


 115              		.loc 1 226 0 discriminator 4
 116 0078 0B60     		str	r3, [r1]
 117              	.LVL5:
 227:.\Generated_Source\PSoC4/ADC_1.c **** 
 228:.\Generated_Source\PSoC4/ADC_1.c ****     #if(ADC_1_MAX_RESOLUTION != ADC_1_RESOLUTION_12)
 229:.\Generated_Source\PSoC4/ADC_1.c ****         ADC_1_WOUNDING_REG = ADC_1_ALT_WOUNDING;
 230:.\Generated_Source\PSoC4/ADC_1.c ****     #endif /* ADC_1_MAX_RESOLUTION != ADC_1_RESOLUTION_12 */
 231:.\Generated_Source\PSoC4/ADC_1.c **** 
 232:.\Generated_Source\PSoC4/ADC_1.c ****     for(chNum = 0u; chNum < ADC_1_TOTAL_CHANNELS_NUM; chNum++)
 118              		.loc 1 232 0 discriminator 4
 119 007a 0022     		mov	r2, #0
 120 007c 64E0     		b	.L3
 121              	.LVL6:
 122              	.L11:
 233:.\Generated_Source\PSoC4/ADC_1.c ****     {
 234:.\Generated_Source\PSoC4/ADC_1.c ****         tmpRegVal = (ADC_1_channelsConfig[chNum] & ADC_1_CHANNEL_CONFIG_MASK);
 123              		.loc 1 234 0
 124 007e 4949     		ldr	r1, .L14+84
 125 0080 9300     		lsl	r3, r2, #2
 126 0082 5858     		ldr	r0, [r3, r1]
 127 0084 DC23     		mov	r3, #220
 128 0086 9B01     		lsl	r3, r3, #6
 129 0088 0340     		and	r3, r0
 130              	.LVL7:
 235:.\Generated_Source\PSoC4/ADC_1.c ****         #if(ADC_1_TOTAL_CHANNELS_NUM > 1u)
 236:.\Generated_Source\PSoC4/ADC_1.c ****             tmpRegVal |= ADC_1_InputsPlacement[chNum];
 131              		.loc 1 236 0
 132 008a 8918     		add	r1, r1, r2
 133 008c 097A     		ldrb	r1, [r1, #8]
 134 008e 0B43     		orr	r3, r1
 135              	.LVL8:
 237:.\Generated_Source\PSoC4/ADC_1.c ****         #endif /* End ADC_1_TOTAL_CHANNELS_NUM > 1u */
 238:.\Generated_Source\PSoC4/ADC_1.c ****         
 239:.\Generated_Source\PSoC4/ADC_1.c ****         
 240:.\Generated_Source\PSoC4/ADC_1.c ****         /* When the part is limited to 10-bit then the SUB_RESOLUTION bit
 241:.\Generated_Source\PSoC4/ADC_1.c ****         *  will be ignored and the RESOLUTION bit selects between 10-bit
 242:.\Generated_Source\PSoC4/ADC_1.c ****         *  (0) and 8-bit (1) resolution.
 243:.\Generated_Source\PSoC4/ADC_1.c ****         */
 244:.\Generated_Source\PSoC4/ADC_1.c ****         #if((ADC_1_MAX_RESOLUTION != ADC_1_RESOLUTION_12) && \
 245:.\Generated_Source\PSoC4/ADC_1.c ****             (ADC_1_ALT_WOUNDING == ADC_1_WOUNDING_10BIT))
 246:.\Generated_Source\PSoC4/ADC_1.c ****             tmpRegVal &= (uint32)(~ADC_1_ALT_RESOLUTION_ON);
 247:.\Generated_Source\PSoC4/ADC_1.c ****         #endif /* ADC_1_MAX_RESOLUTION != ADC_1_RESOLUTION_12 */
 248:.\Generated_Source\PSoC4/ADC_1.c **** 
 249:.\Generated_Source\PSoC4/ADC_1.c ****         #if(ADC_1_INJ_CHANNEL_ENABLED)
 250:.\Generated_Source\PSoC4/ADC_1.c ****         if(chNum < ADC_1_SEQUENCED_CHANNELS_NUM)
 136              		.loc 1 250 0
 137 0090 002A     		cmp	r2, #0
 138 0092 1CD1     		bne	.L4
 251:.\Generated_Source\PSoC4/ADC_1.c ****         #endif /* ADC_1_INJ_CHANNEL_ENABLED */
 252:.\Generated_Source\PSoC4/ADC_1.c ****         {
 253:.\Generated_Source\PSoC4/ADC_1.c ****             CY_SET_REG32((reg32 *)(ADC_1_SAR_CHAN_CONFIG_IND + (uint32)(chNum << 2)), tmpRegVal);
 139              		.loc 1 253 0
 140 0094 9100     		lsl	r1, r2, #2
 141 0096 444C     		ldr	r4, .L14+88
 142 0098 A446     		mov	ip, r4
 143 009a 6144     		add	r1, r1, ip
 144 009c 0B60     		str	r3, [r1]
ARM GAS  C:\Users\NRAY~1.PRI\AppData\Local\Temp\ccCxBLAh.s 			page 8


 254:.\Generated_Source\PSoC4/ADC_1.c **** 
 255:.\Generated_Source\PSoC4/ADC_1.c ****             if((ADC_1_channelsConfig[chNum] & ADC_1_IS_SATURATE_EN_MASK) != 0u)
 145              		.loc 1 255 0
 146 009e C307     		lsl	r3, r0, #31
 147 00a0 07D5     		bpl	.L5
 148              	.LVL9:
 256:.\Generated_Source\PSoC4/ADC_1.c ****             {
 257:.\Generated_Source\PSoC4/ADC_1.c ****                 ADC_1_SAR_SATURATE_INTR_MASK_REG |= (uint16)((uint16)1 << chNum);
 149              		.loc 1 257 0
 150 00a2 3B49     		ldr	r1, .L14+64
 151              	.LVL10:
 152 00a4 0868     		ldr	r0, [r1]
 153 00a6 8023     		mov	r3, #128
 154 00a8 5B02     		lsl	r3, r3, #9
 155 00aa 9340     		lsl	r3, r3, r2
 156 00ac 1B0C     		lsr	r3, r3, #16
 157 00ae 0343     		orr	r3, r0
 158 00b0 0B60     		str	r3, [r1]
 159              	.LVL11:
 160              	.L5:
 258:.\Generated_Source\PSoC4/ADC_1.c ****             }
 259:.\Generated_Source\PSoC4/ADC_1.c **** 
 260:.\Generated_Source\PSoC4/ADC_1.c ****             if((ADC_1_channelsConfig[chNum] & ADC_1_IS_RANGE_CTRL_EN_MASK) != 0u)
 161              		.loc 1 260 0
 162 00b2 9300     		lsl	r3, r2, #2
 163 00b4 3B49     		ldr	r1, .L14+84
 164              	.LVL12:
 165 00b6 5B58     		ldr	r3, [r3, r1]
 166 00b8 9B07     		lsl	r3, r3, #30
 167 00ba 21D5     		bpl	.L6
 261:.\Generated_Source\PSoC4/ADC_1.c ****             {
 262:.\Generated_Source\PSoC4/ADC_1.c ****                 ADC_1_SAR_RANGE_INTR_MASK_REG |= (uint16)((uint16)1 << chNum);
 168              		.loc 1 262 0
 169 00bc 3549     		ldr	r1, .L14+68
 170              	.LVL13:
 171 00be 0868     		ldr	r0, [r1]
 172 00c0 8023     		mov	r3, #128
 173 00c2 5B02     		lsl	r3, r3, #9
 174 00c4 9340     		lsl	r3, r3, r2
 175 00c6 1B0C     		lsr	r3, r3, #16
 176 00c8 0343     		orr	r3, r0
 177 00ca 0B60     		str	r3, [r1]
 178 00cc 18E0     		b	.L6
 179              	.LVL14:
 180              	.L4:
 263:.\Generated_Source\PSoC4/ADC_1.c ****             }
 264:.\Generated_Source\PSoC4/ADC_1.c ****         }
 265:.\Generated_Source\PSoC4/ADC_1.c ****         #if(ADC_1_INJ_CHANNEL_ENABLED)
 266:.\Generated_Source\PSoC4/ADC_1.c ****             else
 267:.\Generated_Source\PSoC4/ADC_1.c ****             {
 268:.\Generated_Source\PSoC4/ADC_1.c ****                 CY_SET_REG32(ADC_1_SAR_INJ_CHAN_CONFIG_PTR, tmpRegVal | ADC_1_INJ_TAILGATING);
 181              		.loc 1 268 0
 182 00ce 8021     		mov	r1, #128
 183 00d0 C905     		lsl	r1, r1, #23
 184 00d2 0B43     		orr	r3, r1
 185              	.LVL15:
 186 00d4 3549     		ldr	r1, .L14+92
ARM GAS  C:\Users\NRAY~1.PRI\AppData\Local\Temp\ccCxBLAh.s 			page 9


 187 00d6 0B60     		str	r3, [r1]
 269:.\Generated_Source\PSoC4/ADC_1.c **** 
 270:.\Generated_Source\PSoC4/ADC_1.c ****                 if((ADC_1_channelsConfig[chNum] & ADC_1_IS_SATURATE_EN_MASK) != 0u)
 188              		.loc 1 270 0
 189 00d8 9300     		lsl	r3, r2, #2
 190 00da 3249     		ldr	r1, .L14+84
 191              	.LVL16:
 192 00dc 5B58     		ldr	r3, [r3, r1]
 193 00de DB07     		lsl	r3, r3, #31
 194 00e0 04D5     		bpl	.L7
 271:.\Generated_Source\PSoC4/ADC_1.c ****                 {
 272:.\Generated_Source\PSoC4/ADC_1.c ****                     ADC_1_SAR_INTR_MASK_REG |= ADC_1_INJ_SATURATE_MASK;
 195              		.loc 1 272 0
 196 00e2 2D49     		ldr	r1, .L14+72
 197              	.LVL17:
 198 00e4 0868     		ldr	r0, [r1]
 199              	.LVL18:
 200 00e6 2023     		mov	r3, #32
 201 00e8 0343     		orr	r3, r0
 202 00ea 0B60     		str	r3, [r1]
 203              	.L7:
 273:.\Generated_Source\PSoC4/ADC_1.c ****                 }
 274:.\Generated_Source\PSoC4/ADC_1.c **** 
 275:.\Generated_Source\PSoC4/ADC_1.c ****                 if((ADC_1_channelsConfig[chNum] & ADC_1_IS_RANGE_CTRL_EN_MASK) != 0u)
 204              		.loc 1 275 0
 205 00ec 9300     		lsl	r3, r2, #2
 206 00ee 2D49     		ldr	r1, .L14+84
 207              	.LVL19:
 208 00f0 5B58     		ldr	r3, [r3, r1]
 209 00f2 9B07     		lsl	r3, r3, #30
 210 00f4 04D5     		bpl	.L6
 276:.\Generated_Source\PSoC4/ADC_1.c ****                 {
 277:.\Generated_Source\PSoC4/ADC_1.c ****                     ADC_1_SAR_INTR_MASK_REG |= ADC_1_INJ_RANGE_MASK;
 211              		.loc 1 277 0
 212 00f6 2849     		ldr	r1, .L14+72
 213              	.LVL20:
 214 00f8 0868     		ldr	r0, [r1]
 215 00fa 4023     		mov	r3, #64
 216 00fc 0343     		orr	r3, r0
 217 00fe 0B60     		str	r3, [r1]
 218              	.L6:
 278:.\Generated_Source\PSoC4/ADC_1.c ****                 }
 279:.\Generated_Source\PSoC4/ADC_1.c ****             }
 280:.\Generated_Source\PSoC4/ADC_1.c ****         #endif /* ADC_1_INJ_CHANNEL_ENABLED */
 281:.\Generated_Source\PSoC4/ADC_1.c **** 
 282:.\Generated_Source\PSoC4/ADC_1.c ****         if((ADC_1_channelsConfig[chNum] & ADC_1_ALT_RESOLUTION_ON) != 0u)
 219              		.loc 1 282 0
 220 0100 9300     		lsl	r3, r2, #2
 221 0102 2849     		ldr	r1, .L14+84
 222              	.LVL21:
 223 0104 5958     		ldr	r1, [r3, r1]
 224              	.LVL22:
 225 0106 8B05     		lsl	r3, r1, #22
 226 0108 02D5     		bpl	.L13
 283:.\Generated_Source\PSoC4/ADC_1.c ****         {
 284:.\Generated_Source\PSoC4/ADC_1.c ****                counts = (int32)ADC_1_DEFAULT_MAX_WRK_ALT;
 227              		.loc 1 284 0
ARM GAS  C:\Users\NRAY~1.PRI\AppData\Local\Temp\ccCxBLAh.s 			page 10


 228 010a 8020     		mov	r0, #128
 229 010c 4000     		lsl	r0, r0, #1
 230 010e 01E0     		b	.L8
 231              	.L13:
 285:.\Generated_Source\PSoC4/ADC_1.c ****         }
 286:.\Generated_Source\PSoC4/ADC_1.c ****         else
 287:.\Generated_Source\PSoC4/ADC_1.c ****         {
 288:.\Generated_Source\PSoC4/ADC_1.c ****                counts = (int32)ADC_1_SAR_WRK_MAX_12BIT;
 232              		.loc 1 288 0
 233 0110 8020     		mov	r0, #128
 234 0112 4001     		lsl	r0, r0, #5
 235              	.L8:
 236              	.LVL23:
 289:.\Generated_Source\PSoC4/ADC_1.c ****         }
 290:.\Generated_Source\PSoC4/ADC_1.c **** 
 291:.\Generated_Source\PSoC4/ADC_1.c ****         if((ADC_1_channelsConfig[chNum] & ADC_1_DIFFERENTIAL_EN) == 0u)
 237              		.loc 1 291 0
 238 0114 CB05     		lsl	r3, r1, #23
 239 0116 04D4     		bmi	.L9
 292:.\Generated_Source\PSoC4/ADC_1.c ****         {
 293:.\Generated_Source\PSoC4/ADC_1.c ****             #if((ADC_1_DEFAULT_SE_RESULT_FORMAT_SEL == ADC_1__FSIGNED) && \
 294:.\Generated_Source\PSoC4/ADC_1.c ****                 (ADC_1_DEFAULT_NEG_INPUT_SEL == ADC_1__VREF))
 295:.\Generated_Source\PSoC4/ADC_1.c ****                 /* Set offset to the minus half scale to convert results to unsigned format */
 296:.\Generated_Source\PSoC4/ADC_1.c ****                 ADC_1_offset[chNum] = (int16)(counts / -2);
 297:.\Generated_Source\PSoC4/ADC_1.c ****             #else
 298:.\Generated_Source\PSoC4/ADC_1.c ****                 ADC_1_offset[chNum] = 0;
 240              		.loc 1 298 0
 241 0118 5300     		lsl	r3, r2, #1
 242 011a 0024     		mov	r4, #0
 243 011c 2449     		ldr	r1, .L14+96
 244 011e 5C52     		strh	r4, [r3, r1]
 245 0120 03E0     		b	.L10
 246              	.L9:
 299:.\Generated_Source\PSoC4/ADC_1.c ****             #endif /* end DEFAULT_SE_RESULT_FORMAT_SEL == ADC_1__FSIGNED */
 300:.\Generated_Source\PSoC4/ADC_1.c ****         }
 301:.\Generated_Source\PSoC4/ADC_1.c ****         else    /* Differential channel */
 302:.\Generated_Source\PSoC4/ADC_1.c ****         {
 303:.\Generated_Source\PSoC4/ADC_1.c ****             #if(ADC_1_DEFAULT_DIFF_RESULT_FORMAT_SEL == ADC_1__FUNSIGNED)
 304:.\Generated_Source\PSoC4/ADC_1.c ****                 /* Set offset to the half scale to convert results to signed format */
 305:.\Generated_Source\PSoC4/ADC_1.c ****                 ADC_1_offset[chNum] = (int16)(counts / 2);
 306:.\Generated_Source\PSoC4/ADC_1.c ****             #else
 307:.\Generated_Source\PSoC4/ADC_1.c ****                 ADC_1_offset[chNum] = 0;
 247              		.loc 1 307 0
 248 0122 5300     		lsl	r3, r2, #1
 249 0124 0024     		mov	r4, #0
 250 0126 2249     		ldr	r1, .L14+96
 251 0128 5C52     		strh	r4, [r3, r1]
 252              	.L10:
 308:.\Generated_Source\PSoC4/ADC_1.c ****             #endif /* end ADC_1_DEFAULT_DIFF_RESULT_FORMAT_SEL == ADC_1__FUNSIGNED */
 309:.\Generated_Source\PSoC4/ADC_1.c ****         }
 310:.\Generated_Source\PSoC4/ADC_1.c ****         /* Calculate gain in counts per 10 volts with rounding */
 311:.\Generated_Source\PSoC4/ADC_1.c ****         ADC_1_countsPer10Volt[chNum] = (int16)(((counts * ADC_1_10MV_COUNTS) +
 253              		.loc 1 311 0 discriminator 2
 254 012a 224B     		ldr	r3, .L14+100
 255 012c 4343     		mul	r3, r0
 256 012e 8021     		mov	r1, #128
 257 0130 C900     		lsl	r1, r1, #3
ARM GAS  C:\Users\NRAY~1.PRI\AppData\Local\Temp\ccCxBLAh.s 			page 11


 258 0132 8C46     		mov	ip, r1
 259 0134 6344     		add	r3, r3, ip
 312:.\Generated_Source\PSoC4/ADC_1.c ****                             ADC_1_DEFAULT_VREF_MV_VALUE) / (ADC_1_DEFAULT_VREF_MV_VALUE * 2));
 260              		.loc 1 312 0 discriminator 2
 261 0136 D917     		asr	r1, r3, #31
 262 0138 490D     		lsr	r1, r1, #21
 263 013a CB18     		add	r3, r1, r3
 264 013c DB12     		asr	r3, r3, #11
 311:.\Generated_Source\PSoC4/ADC_1.c ****                             ADC_1_DEFAULT_VREF_MV_VALUE) / (ADC_1_DEFAULT_VREF_MV_VALUE * 2));
 265              		.loc 1 311 0 discriminator 2
 266 013e 1BB2     		sxth	r3, r3
 267 0140 9000     		lsl	r0, r2, #2
 268              	.LVL24:
 269 0142 1D49     		ldr	r1, .L14+104
 270 0144 4350     		str	r3, [r0, r1]
 232:.\Generated_Source\PSoC4/ADC_1.c ****     {
 271              		.loc 1 232 0 discriminator 2
 272 0146 0132     		add	r2, r2, #1
 273              	.LVL25:
 274              	.L3:
 232:.\Generated_Source\PSoC4/ADC_1.c ****     {
 275              		.loc 1 232 0 is_stmt 0 discriminator 1
 276 0148 012A     		cmp	r2, #1
 277 014a 98D9     		bls	.L11
 313:.\Generated_Source\PSoC4/ADC_1.c ****     }
 314:.\Generated_Source\PSoC4/ADC_1.c **** }
 278              		.loc 1 314 0 is_stmt 1
 279              		@ sp needed
 280 014c 10BD     		pop	{r4, pc}
 281              	.L15:
 282 014e C046     		.align	2
 283              	.L14:
 284 0150 00000000 		.word	ADC_1_ISR
 285 0154 20003A40 		.word	1077542944
 286 0158 80033A40 		.word	1077543808
 287 015c 40201013 		.word	319823936
 288 0160 40200013 		.word	318775360
 289 0164 00003A40 		.word	1077542912
 290 0168 BC000A80 		.word	-2146828100
 291 016c 04003A40 		.word	1077542916
 292 0170 0000FF07 		.word	134152192
 293 0174 18003A40 		.word	1077542936
 294 0178 1C003A40 		.word	1077542940
 295 017c 02000200 		.word	131074
 296 0180 10003A40 		.word	1077542928
 297 0184 14003A40 		.word	1077542932
 298 0188 00033A40 		.word	1077543680
 299 018c 40033A40 		.word	1077543744
 300 0190 28023A40 		.word	1077543464
 301 0194 38023A40 		.word	1077543480
 302 0198 18023A40 		.word	1077543448
 303 019c 30003A40 		.word	1077542960
 304 01a0 FFFFFFDF 		.word	-536870913
 305 01a4 00000000 		.word	.LANCHOR0
 306 01a8 80003A40 		.word	1077543040
 307 01ac 80023A40 		.word	1077543552
 308 01b0 00000000 		.word	ADC_1_offset
ARM GAS  C:\Users\NRAY~1.PRI\AppData\Local\Temp\ccCxBLAh.s 			page 12


 309 01b4 10270000 		.word	10000
 310 01b8 00000000 		.word	ADC_1_countsPer10Volt
 311              		.cfi_endproc
 312              	.LFE2:
 313              		.size	ADC_1_Init, .-ADC_1_Init
 314              		.section	.text.ADC_1_Enable,"ax",%progbits
 315              		.align	2
 316              		.global	ADC_1_Enable
 317              		.code	16
 318              		.thumb_func
 319              		.type	ADC_1_Enable, %function
 320              	ADC_1_Enable:
 321              	.LFB3:
 315:.\Generated_Source\PSoC4/ADC_1.c **** 
 316:.\Generated_Source\PSoC4/ADC_1.c **** /*******************************************************************************
 317:.\Generated_Source\PSoC4/ADC_1.c **** * Function Name: ADC_SAR_1_Enable
 318:.\Generated_Source\PSoC4/ADC_1.c **** ********************************************************************************
 319:.\Generated_Source\PSoC4/ADC_1.c **** *
 320:.\Generated_Source\PSoC4/ADC_1.c **** * Summary:
 321:.\Generated_Source\PSoC4/ADC_1.c **** *  Enables the clock and analog power for SAR ADC.
 322:.\Generated_Source\PSoC4/ADC_1.c **** *
 323:.\Generated_Source\PSoC4/ADC_1.c **** * Parameters:
 324:.\Generated_Source\PSoC4/ADC_1.c **** *  None.
 325:.\Generated_Source\PSoC4/ADC_1.c **** *
 326:.\Generated_Source\PSoC4/ADC_1.c **** * Return:
 327:.\Generated_Source\PSoC4/ADC_1.c **** *  None.
 328:.\Generated_Source\PSoC4/ADC_1.c **** *
 329:.\Generated_Source\PSoC4/ADC_1.c **** *******************************************************************************/
 330:.\Generated_Source\PSoC4/ADC_1.c **** void ADC_1_Enable(void)
 331:.\Generated_Source\PSoC4/ADC_1.c **** {
 322              		.loc 1 331 0
 323              		.cfi_startproc
 324 0000 08B5     		push	{r3, lr}
 325              		.cfi_def_cfa_offset 8
 326              		.cfi_offset 3, -8
 327              		.cfi_offset 14, -4
 332:.\Generated_Source\PSoC4/ADC_1.c ****     if (0u == (ADC_1_SAR_CTRL_REG & ADC_1_ENABLE))
 328              		.loc 1 332 0
 329 0002 094B     		ldr	r3, .L19
 330 0004 1B68     		ldr	r3, [r3]
 331 0006 002B     		cmp	r3, #0
 332 0008 0CDB     		blt	.L16
 333              	.L18:
 333:.\Generated_Source\PSoC4/ADC_1.c ****     {
 334:.\Generated_Source\PSoC4/ADC_1.c ****         #if(ADC_1_CY_SAR_IP_VER != ADC_1_CY_SAR_IP_VER0)
 335:.\Generated_Source\PSoC4/ADC_1.c **** 
 336:.\Generated_Source\PSoC4/ADC_1.c ****             while (0u != (ADC_1_SAR_STATUS_REG & ADC_1_STATUS_BUSY))
 334              		.loc 1 336 0 discriminator 1
 335 000a 084B     		ldr	r3, .L19+4
 336 000c 1B68     		ldr	r3, [r3]
 337 000e 002B     		cmp	r3, #0
 338 0010 FBDB     		blt	.L18
 337:.\Generated_Source\PSoC4/ADC_1.c ****             {
 338:.\Generated_Source\PSoC4/ADC_1.c ****                 /* wait for SAR to go idle to avoid deadlock */
 339:.\Generated_Source\PSoC4/ADC_1.c ****             }
 340:.\Generated_Source\PSoC4/ADC_1.c ****         #endif /* (ADC_1_CY_SAR_IP_VER != ADC_1_CY_SAR_IP_VER0) */
 341:.\Generated_Source\PSoC4/ADC_1.c ****         
ARM GAS  C:\Users\NRAY~1.PRI\AppData\Local\Temp\ccCxBLAh.s 			page 13


 342:.\Generated_Source\PSoC4/ADC_1.c ****         ADC_1_SAR_CTRL_REG |= ADC_1_ENABLE;
 339              		.loc 1 342 0
 340 0012 054A     		ldr	r2, .L19
 341 0014 1368     		ldr	r3, [r2]
 342 0016 8021     		mov	r1, #128
 343 0018 0906     		lsl	r1, r1, #24
 344 001a 0B43     		orr	r3, r1
 345 001c 1360     		str	r3, [r2]
 343:.\Generated_Source\PSoC4/ADC_1.c ****         
 344:.\Generated_Source\PSoC4/ADC_1.c ****         /* The block is ready to use 10 us after the enable signal is set high. */
 345:.\Generated_Source\PSoC4/ADC_1.c ****         CyDelayUs(ADC_1_10US_DELAY);         
 346              		.loc 1 345 0
 347 001e 0A20     		mov	r0, #10
 348 0020 FFF7FEFF 		bl	CyDelayUs
 349              	.LVL26:
 350              	.L16:
 346:.\Generated_Source\PSoC4/ADC_1.c ****     }
 347:.\Generated_Source\PSoC4/ADC_1.c **** }
 351              		.loc 1 347 0
 352              		@ sp needed
 353 0024 08BD     		pop	{r3, pc}
 354              	.L20:
 355 0026 C046     		.align	2
 356              	.L19:
 357 0028 00003A40 		.word	1077542912
 358 002c 08023A40 		.word	1077543432
 359              		.cfi_endproc
 360              	.LFE3:
 361              		.size	ADC_1_Enable, .-ADC_1_Enable
 362              		.section	.text.ADC_1_Start,"ax",%progbits
 363              		.align	2
 364              		.global	ADC_1_Start
 365              		.code	16
 366              		.thumb_func
 367              		.type	ADC_1_Start, %function
 368              	ADC_1_Start:
 369              	.LFB1:
  64:.\Generated_Source\PSoC4/ADC_1.c ****     /* If not Initialized then initialize all required hardware and software */
 370              		.loc 1 64 0
 371              		.cfi_startproc
 372 0000 08B5     		push	{r3, lr}
 373              		.cfi_def_cfa_offset 8
 374              		.cfi_offset 3, -8
 375              		.cfi_offset 14, -4
  66:.\Generated_Source\PSoC4/ADC_1.c ****     {
 376              		.loc 1 66 0
 377 0002 064B     		ldr	r3, .L23
 378 0004 1B78     		ldrb	r3, [r3]
 379 0006 002B     		cmp	r3, #0
 380 0008 04D1     		bne	.L22
  68:.\Generated_Source\PSoC4/ADC_1.c ****         ADC_1_initVar = 1u;
 381              		.loc 1 68 0
 382 000a FFF7FEFF 		bl	ADC_1_Init
 383              	.LVL27:
  69:.\Generated_Source\PSoC4/ADC_1.c ****     }
 384              		.loc 1 69 0
 385 000e 0122     		mov	r2, #1
ARM GAS  C:\Users\NRAY~1.PRI\AppData\Local\Temp\ccCxBLAh.s 			page 14


 386 0010 024B     		ldr	r3, .L23
 387 0012 1A70     		strb	r2, [r3]
 388              	.L22:
  71:.\Generated_Source\PSoC4/ADC_1.c **** }
 389              		.loc 1 71 0
 390 0014 FFF7FEFF 		bl	ADC_1_Enable
 391              	.LVL28:
  72:.\Generated_Source\PSoC4/ADC_1.c **** 
 392              		.loc 1 72 0
 393              		@ sp needed
 394 0018 08BD     		pop	{r3, pc}
 395              	.L24:
 396 001a C046     		.align	2
 397              	.L23:
 398 001c 00000000 		.word	.LANCHOR1
 399              		.cfi_endproc
 400              	.LFE1:
 401              		.size	ADC_1_Start, .-ADC_1_Start
 402              		.section	.text.ADC_1_Stop,"ax",%progbits
 403              		.align	2
 404              		.global	ADC_1_Stop
 405              		.code	16
 406              		.thumb_func
 407              		.type	ADC_1_Stop, %function
 408              	ADC_1_Stop:
 409              	.LFB4:
 348:.\Generated_Source\PSoC4/ADC_1.c **** 
 349:.\Generated_Source\PSoC4/ADC_1.c **** 
 350:.\Generated_Source\PSoC4/ADC_1.c **** /*******************************************************************************
 351:.\Generated_Source\PSoC4/ADC_1.c **** * Function Name: ADC_1_Stop
 352:.\Generated_Source\PSoC4/ADC_1.c **** ********************************************************************************
 353:.\Generated_Source\PSoC4/ADC_1.c **** *
 354:.\Generated_Source\PSoC4/ADC_1.c **** * Summary:
 355:.\Generated_Source\PSoC4/ADC_1.c **** *  This function stops ADC conversions and puts the ADC into its lowest power
 356:.\Generated_Source\PSoC4/ADC_1.c **** *  mode.
 357:.\Generated_Source\PSoC4/ADC_1.c **** *
 358:.\Generated_Source\PSoC4/ADC_1.c **** * Parameters:
 359:.\Generated_Source\PSoC4/ADC_1.c **** *  None.
 360:.\Generated_Source\PSoC4/ADC_1.c **** *
 361:.\Generated_Source\PSoC4/ADC_1.c **** * Return:
 362:.\Generated_Source\PSoC4/ADC_1.c **** *  None.
 363:.\Generated_Source\PSoC4/ADC_1.c **** *
 364:.\Generated_Source\PSoC4/ADC_1.c **** *******************************************************************************/
 365:.\Generated_Source\PSoC4/ADC_1.c **** void ADC_1_Stop(void)
 366:.\Generated_Source\PSoC4/ADC_1.c **** {
 410              		.loc 1 366 0
 411              		.cfi_startproc
 367:.\Generated_Source\PSoC4/ADC_1.c ****     ADC_1_SAR_CTRL_REG &= (uint32)~ADC_1_ENABLE;
 412              		.loc 1 367 0
 413 0000 024A     		ldr	r2, .L26
 414 0002 1368     		ldr	r3, [r2]
 415 0004 5B00     		lsl	r3, r3, #1
 416 0006 5B08     		lsr	r3, r3, #1
 417 0008 1360     		str	r3, [r2]
 368:.\Generated_Source\PSoC4/ADC_1.c **** }
 418              		.loc 1 368 0
 419              		@ sp needed
ARM GAS  C:\Users\NRAY~1.PRI\AppData\Local\Temp\ccCxBLAh.s 			page 15


 420 000a 7047     		bx	lr
 421              	.L27:
 422              		.align	2
 423              	.L26:
 424 000c 00003A40 		.word	1077542912
 425              		.cfi_endproc
 426              	.LFE4:
 427              		.size	ADC_1_Stop, .-ADC_1_Stop
 428              		.section	.text.ADC_1_StartConvert,"ax",%progbits
 429              		.align	2
 430              		.global	ADC_1_StartConvert
 431              		.code	16
 432              		.thumb_func
 433              		.type	ADC_1_StartConvert, %function
 434              	ADC_1_StartConvert:
 435              	.LFB5:
 369:.\Generated_Source\PSoC4/ADC_1.c **** 
 370:.\Generated_Source\PSoC4/ADC_1.c **** 
 371:.\Generated_Source\PSoC4/ADC_1.c **** /*******************************************************************************
 372:.\Generated_Source\PSoC4/ADC_1.c **** * Function Name: ADC_1_StartConvert
 373:.\Generated_Source\PSoC4/ADC_1.c **** ********************************************************************************
 374:.\Generated_Source\PSoC4/ADC_1.c **** *
 375:.\Generated_Source\PSoC4/ADC_1.c **** * Summary:
 376:.\Generated_Source\PSoC4/ADC_1.c **** *  Description:
 377:.\Generated_Source\PSoC4/ADC_1.c **** *  For free running mode, this API starts the conversion process and it
 378:.\Generated_Source\PSoC4/ADC_1.c **** *  runs continuously.
 379:.\Generated_Source\PSoC4/ADC_1.c **** *
 380:.\Generated_Source\PSoC4/ADC_1.c **** *  In a triggered mode, this routine triggers every conversion by
 381:.\Generated_Source\PSoC4/ADC_1.c **** *  writing into the FW_TRIGGER bit in SAR_START_CTRL reg. In triggered mode,
 382:.\Generated_Source\PSoC4/ADC_1.c **** *  every conversion has to start by this API.
 383:.\Generated_Source\PSoC4/ADC_1.c **** *
 384:.\Generated_Source\PSoC4/ADC_1.c **** * Parameters:
 385:.\Generated_Source\PSoC4/ADC_1.c **** *  None.
 386:.\Generated_Source\PSoC4/ADC_1.c **** *
 387:.\Generated_Source\PSoC4/ADC_1.c **** * Return:
 388:.\Generated_Source\PSoC4/ADC_1.c **** *  None.
 389:.\Generated_Source\PSoC4/ADC_1.c **** *
 390:.\Generated_Source\PSoC4/ADC_1.c **** *******************************************************************************/
 391:.\Generated_Source\PSoC4/ADC_1.c **** void ADC_1_StartConvert(void)
 392:.\Generated_Source\PSoC4/ADC_1.c **** {
 436              		.loc 1 392 0
 437              		.cfi_startproc
 393:.\Generated_Source\PSoC4/ADC_1.c ****     #if(ADC_1_DEFAULT_SAMPLE_MODE_SEL == ADC_1__FREERUNNING)
 394:.\Generated_Source\PSoC4/ADC_1.c ****         ADC_1_SAR_SAMPLE_CTRL_REG |= ADC_1_CONTINUOUS_EN;
 395:.\Generated_Source\PSoC4/ADC_1.c ****     #else /* Firmware trigger */
 396:.\Generated_Source\PSoC4/ADC_1.c ****         ADC_1_SAR_START_CTRL_REG = ADC_1_FW_TRIGGER;
 438              		.loc 1 396 0
 439 0000 0122     		mov	r2, #1
 440 0002 014B     		ldr	r3, .L29
 441 0004 1A60     		str	r2, [r3]
 397:.\Generated_Source\PSoC4/ADC_1.c ****     #endif /* End ADC_1_DEFAULT_SAMPLE_MODE == ADC_1__FREERUNNING */
 398:.\Generated_Source\PSoC4/ADC_1.c **** 
 399:.\Generated_Source\PSoC4/ADC_1.c **** }
 442              		.loc 1 399 0
 443              		@ sp needed
 444 0006 7047     		bx	lr
 445              	.L30:
ARM GAS  C:\Users\NRAY~1.PRI\AppData\Local\Temp\ccCxBLAh.s 			page 16


 446              		.align	2
 447              	.L29:
 448 0008 24003A40 		.word	1077542948
 449              		.cfi_endproc
 450              	.LFE5:
 451              		.size	ADC_1_StartConvert, .-ADC_1_StartConvert
 452              		.section	.text.ADC_1_StopConvert,"ax",%progbits
 453              		.align	2
 454              		.global	ADC_1_StopConvert
 455              		.code	16
 456              		.thumb_func
 457              		.type	ADC_1_StopConvert, %function
 458              	ADC_1_StopConvert:
 459              	.LFB6:
 400:.\Generated_Source\PSoC4/ADC_1.c **** 
 401:.\Generated_Source\PSoC4/ADC_1.c **** 
 402:.\Generated_Source\PSoC4/ADC_1.c **** /*******************************************************************************
 403:.\Generated_Source\PSoC4/ADC_1.c **** * Function Name: ADC_1_StopConvert
 404:.\Generated_Source\PSoC4/ADC_1.c **** ********************************************************************************
 405:.\Generated_Source\PSoC4/ADC_1.c **** *
 406:.\Generated_Source\PSoC4/ADC_1.c **** * Summary:
 407:.\Generated_Source\PSoC4/ADC_1.c **** *  Forces the ADC to stop all conversions.
 408:.\Generated_Source\PSoC4/ADC_1.c **** *
 409:.\Generated_Source\PSoC4/ADC_1.c **** * Parameters:
 410:.\Generated_Source\PSoC4/ADC_1.c **** *  None.
 411:.\Generated_Source\PSoC4/ADC_1.c **** *
 412:.\Generated_Source\PSoC4/ADC_1.c **** * Return:
 413:.\Generated_Source\PSoC4/ADC_1.c **** *  None.
 414:.\Generated_Source\PSoC4/ADC_1.c **** *
 415:.\Generated_Source\PSoC4/ADC_1.c **** *******************************************************************************/
 416:.\Generated_Source\PSoC4/ADC_1.c **** void ADC_1_StopConvert(void)
 417:.\Generated_Source\PSoC4/ADC_1.c **** {
 460              		.loc 1 417 0
 461              		.cfi_startproc
 418:.\Generated_Source\PSoC4/ADC_1.c ****     #if(ADC_1_DEFAULT_SAMPLE_MODE_SEL == ADC_1__FREERUNNING)
 419:.\Generated_Source\PSoC4/ADC_1.c ****         ADC_1_SAR_SAMPLE_CTRL_REG &= (uint32)(~ADC_1_CONTINUOUS_EN);
 420:.\Generated_Source\PSoC4/ADC_1.c ****     #endif /* ADC_1_DEFAULT_SAMPLE_MODE == ADC_1__FREERUNNING */
 421:.\Generated_Source\PSoC4/ADC_1.c **** }
 462              		.loc 1 421 0
 463              		@ sp needed
 464 0000 7047     		bx	lr
 465              		.cfi_endproc
 466              	.LFE6:
 467              		.size	ADC_1_StopConvert, .-ADC_1_StopConvert
 468 0002 C046     		.section	.text.ADC_1_IsEndConversion,"ax",%progbits
 469              		.align	2
 470              		.global	ADC_1_IsEndConversion
 471              		.code	16
 472              		.thumb_func
 473              		.type	ADC_1_IsEndConversion, %function
 474              	ADC_1_IsEndConversion:
 475              	.LFB7:
 422:.\Generated_Source\PSoC4/ADC_1.c **** 
 423:.\Generated_Source\PSoC4/ADC_1.c **** 
 424:.\Generated_Source\PSoC4/ADC_1.c **** /*******************************************************************************
 425:.\Generated_Source\PSoC4/ADC_1.c **** * Function Name: ADC_1_IsEndConversion
 426:.\Generated_Source\PSoC4/ADC_1.c **** ********************************************************************************
ARM GAS  C:\Users\NRAY~1.PRI\AppData\Local\Temp\ccCxBLAh.s 			page 17


 427:.\Generated_Source\PSoC4/ADC_1.c **** *
 428:.\Generated_Source\PSoC4/ADC_1.c **** * Summary:
 429:.\Generated_Source\PSoC4/ADC_1.c **** *  Description: Checks for ADC end of conversion for the case one
 430:.\Generated_Source\PSoC4/ADC_1.c **** *  channel and end of scan for the case of multiple channels. It acts
 431:.\Generated_Source\PSoC4/ADC_1.c **** *  as a software version of the EOC. This function provides the
 432:.\Generated_Source\PSoC4/ADC_1.c **** *  programmer with two options. In one mode this function
 433:.\Generated_Source\PSoC4/ADC_1.c **** *  immediately returns with the conversion status. In the other mode,
 434:.\Generated_Source\PSoC4/ADC_1.c **** *  the function does not return (blocking) until the conversion has
 435:.\Generated_Source\PSoC4/ADC_1.c **** *  completed.
 436:.\Generated_Source\PSoC4/ADC_1.c **** *
 437:.\Generated_Source\PSoC4/ADC_1.c **** * Parameters:
 438:.\Generated_Source\PSoC4/ADC_1.c **** *  ADC_RETURN_STATUS        -> Immediately returns conversion result status
 439:.\Generated_Source\PSoC4/ADC_1.c **** *  ADC_WAIT_FOR_RESULT      -> Does not return until ADC complete
 440:.\Generated_Source\PSoC4/ADC_1.c **** *  ADC_RETURN_STATUS_INJ    -> Immediately returns conversion result status
 441:.\Generated_Source\PSoC4/ADC_1.c **** *                              for injection channel
 442:.\Generated_Source\PSoC4/ADC_1.c **** *  ADC_WAIT_FOR_RESULT_INJ  -> Does not return until ADC completes injection
 443:.\Generated_Source\PSoC4/ADC_1.c **** *                              channel conversion
 444:.\Generated_Source\PSoC4/ADC_1.c **** *
 445:.\Generated_Source\PSoC4/ADC_1.c **** * Return:
 446:.\Generated_Source\PSoC4/ADC_1.c **** *  If a non-zero value is returned, the last conversion or scan has completed.
 447:.\Generated_Source\PSoC4/ADC_1.c **** *  If the returned value is zero, the ADC is still in the process of a scan.
 448:.\Generated_Source\PSoC4/ADC_1.c **** *
 449:.\Generated_Source\PSoC4/ADC_1.c **** *******************************************************************************/
 450:.\Generated_Source\PSoC4/ADC_1.c **** uint32 ADC_1_IsEndConversion(uint32 retMode)
 451:.\Generated_Source\PSoC4/ADC_1.c **** {
 476              		.loc 1 451 0
 477              		.cfi_startproc
 478              	.LVL29:
 479 0000 011C     		mov	r1, r0
 480              	.LVL30:
 452:.\Generated_Source\PSoC4/ADC_1.c ****     uint32 status = 0u;
 453:.\Generated_Source\PSoC4/ADC_1.c **** 
 454:.\Generated_Source\PSoC4/ADC_1.c ****     if((retMode & (ADC_1_RETURN_STATUS | ADC_1_WAIT_FOR_RESULT)) != 0u)
 481              		.loc 1 454 0
 482 0002 8307     		lsl	r3, r0, #30
 483 0004 0CD0     		beq	.L39
 484              	.LVL31:
 485              	.L35:
 455:.\Generated_Source\PSoC4/ADC_1.c ****     {
 456:.\Generated_Source\PSoC4/ADC_1.c ****         do
 457:.\Generated_Source\PSoC4/ADC_1.c ****         {
 458:.\Generated_Source\PSoC4/ADC_1.c ****             status = ADC_1_SAR_INTR_REG & ADC_1_EOS_MASK;
 486              		.loc 1 458 0 discriminator 2
 487 0006 104B     		ldr	r3, .L40
 488 0008 1B68     		ldr	r3, [r3]
 489 000a 0120     		mov	r0, #1
 490 000c 1840     		and	r0, r3
 491              	.LVL32:
 459:.\Generated_Source\PSoC4/ADC_1.c ****         }while((status == 0u) && ((retMode & ADC_1_WAIT_FOR_RESULT) != 0u));
 492              		.loc 1 459 0 discriminator 2
 493 000e 01D1     		bne	.L34
 494              		.loc 1 459 0 is_stmt 0 discriminator 1
 495 0010 8B07     		lsl	r3, r1, #30
 496 0012 F8D4     		bmi	.L35
 497              	.L34:
 460:.\Generated_Source\PSoC4/ADC_1.c **** 
 461:.\Generated_Source\PSoC4/ADC_1.c ****         if(status != 0u)
ARM GAS  C:\Users\NRAY~1.PRI\AppData\Local\Temp\ccCxBLAh.s 			page 18


 498              		.loc 1 461 0 is_stmt 1
 499 0014 0028     		cmp	r0, #0
 500 0016 04D0     		beq	.L33
 462:.\Generated_Source\PSoC4/ADC_1.c ****         {
 463:.\Generated_Source\PSoC4/ADC_1.c ****             /* Clear EOS bit */
 464:.\Generated_Source\PSoC4/ADC_1.c ****             ADC_1_SAR_INTR_REG = ADC_1_EOS_MASK;
 501              		.loc 1 464 0
 502 0018 0122     		mov	r2, #1
 503 001a 0B4B     		ldr	r3, .L40
 504 001c 1A60     		str	r2, [r3]
 505 001e 00E0     		b	.L33
 506              	.LVL33:
 507              	.L39:
 452:.\Generated_Source\PSoC4/ADC_1.c **** 
 508              		.loc 1 452 0
 509 0020 0020     		mov	r0, #0
 510              	.LVL34:
 511              	.L33:
 465:.\Generated_Source\PSoC4/ADC_1.c ****         }
 466:.\Generated_Source\PSoC4/ADC_1.c ****     }
 467:.\Generated_Source\PSoC4/ADC_1.c **** 
 468:.\Generated_Source\PSoC4/ADC_1.c ****     #if(ADC_1_INJ_CHANNEL_ENABLED)
 469:.\Generated_Source\PSoC4/ADC_1.c ****         if((retMode & (ADC_1_RETURN_STATUS_INJ | ADC_1_WAIT_FOR_RESULT_INJ)) != 0u)
 512              		.loc 1 469 0
 513 0022 0C23     		mov	r3, #12
 514 0024 0B42     		tst	r3, r1
 515 0026 0DD0     		beq	.L36
 516              	.L38:
 470:.\Generated_Source\PSoC4/ADC_1.c ****         {
 471:.\Generated_Source\PSoC4/ADC_1.c ****             do
 472:.\Generated_Source\PSoC4/ADC_1.c ****             {
 473:.\Generated_Source\PSoC4/ADC_1.c ****                 status |= ADC_1_SAR_INTR_REG & ADC_1_INJ_EOC_MASK;
 517              		.loc 1 473 0
 518 0028 074B     		ldr	r3, .L40
 519 002a 1A68     		ldr	r2, [r3]
 520 002c 1023     		mov	r3, #16
 521 002e 1A40     		and	r2, r3
 522 0030 1043     		orr	r0, r2
 523              	.LVL35:
 474:.\Generated_Source\PSoC4/ADC_1.c ****             }while(((status & ADC_1_INJ_EOC_MASK) == 0u) &&
 524              		.loc 1 474 0
 525 0032 0340     		and	r3, r0
 475:.\Generated_Source\PSoC4/ADC_1.c ****                    ((retMode & ADC_1_WAIT_FOR_RESULT_INJ) != 0u));
 526              		.loc 1 475 0
 527 0034 01D1     		bne	.L37
 474:.\Generated_Source\PSoC4/ADC_1.c ****             }while(((status & ADC_1_INJ_EOC_MASK) == 0u) &&
 528              		.loc 1 474 0 discriminator 1
 529 0036 0A07     		lsl	r2, r1, #28
 530 0038 F6D4     		bmi	.L38
 531              	.L37:
 476:.\Generated_Source\PSoC4/ADC_1.c **** 
 477:.\Generated_Source\PSoC4/ADC_1.c ****             if((status & ADC_1_INJ_EOC_MASK) != 0u)
 532              		.loc 1 477 0
 533 003a 002B     		cmp	r3, #0
 534 003c 02D0     		beq	.L36
 478:.\Generated_Source\PSoC4/ADC_1.c ****             {
 479:.\Generated_Source\PSoC4/ADC_1.c ****                 /* Clear Injection EOS bit */
ARM GAS  C:\Users\NRAY~1.PRI\AppData\Local\Temp\ccCxBLAh.s 			page 19


 480:.\Generated_Source\PSoC4/ADC_1.c ****                 ADC_1_SAR_INTR_REG = ADC_1_INJ_EOC_MASK;
 535              		.loc 1 480 0
 536 003e 1022     		mov	r2, #16
 537 0040 014B     		ldr	r3, .L40
 538 0042 1A60     		str	r2, [r3]
 539              	.L36:
 481:.\Generated_Source\PSoC4/ADC_1.c ****             }
 482:.\Generated_Source\PSoC4/ADC_1.c ****         }
 483:.\Generated_Source\PSoC4/ADC_1.c ****     #endif /* ADC_1_INJ_CHANNEL_ENABLED */
 484:.\Generated_Source\PSoC4/ADC_1.c **** 
 485:.\Generated_Source\PSoC4/ADC_1.c ****     return (status);
 486:.\Generated_Source\PSoC4/ADC_1.c **** }
 540              		.loc 1 486 0
 541              		@ sp needed
 542 0044 7047     		bx	lr
 543              	.L41:
 544 0046 C046     		.align	2
 545              	.L40:
 546 0048 10023A40 		.word	1077543440
 547              		.cfi_endproc
 548              	.LFE7:
 549              		.size	ADC_1_IsEndConversion, .-ADC_1_IsEndConversion
 550              		.section	.text.ADC_1_GetResult16,"ax",%progbits
 551              		.align	2
 552              		.global	ADC_1_GetResult16
 553              		.code	16
 554              		.thumb_func
 555              		.type	ADC_1_GetResult16, %function
 556              	ADC_1_GetResult16:
 557              	.LFB8:
 487:.\Generated_Source\PSoC4/ADC_1.c **** 
 488:.\Generated_Source\PSoC4/ADC_1.c **** 
 489:.\Generated_Source\PSoC4/ADC_1.c **** /*******************************************************************************
 490:.\Generated_Source\PSoC4/ADC_1.c **** * Function Name: ADC_1_GetResult16
 491:.\Generated_Source\PSoC4/ADC_1.c **** ********************************************************************************
 492:.\Generated_Source\PSoC4/ADC_1.c **** *
 493:.\Generated_Source\PSoC4/ADC_1.c **** * Summary:
 494:.\Generated_Source\PSoC4/ADC_1.c **** *  Gets the data available in the SAR DATA register.
 495:.\Generated_Source\PSoC4/ADC_1.c **** *
 496:.\Generated_Source\PSoC4/ADC_1.c **** * Parameters:
 497:.\Generated_Source\PSoC4/ADC_1.c **** *  chan: The ADC channel in which to return the result. The first channel
 498:.\Generated_Source\PSoC4/ADC_1.c **** *  is 0 and the injection channel if enabled is the number of valid channels.
 499:.\Generated_Source\PSoC4/ADC_1.c **** *
 500:.\Generated_Source\PSoC4/ADC_1.c **** * Return:
 501:.\Generated_Source\PSoC4/ADC_1.c **** *  Returns converted data as a signed 16-bit integer
 502:.\Generated_Source\PSoC4/ADC_1.c **** *
 503:.\Generated_Source\PSoC4/ADC_1.c **** *******************************************************************************/
 504:.\Generated_Source\PSoC4/ADC_1.c **** int16 ADC_1_GetResult16(uint32 chan)
 505:.\Generated_Source\PSoC4/ADC_1.c **** {
 558              		.loc 1 505 0
 559              		.cfi_startproc
 560              	.LVL36:
 561 0000 10B5     		push	{r4, lr}
 562              		.cfi_def_cfa_offset 8
 563              		.cfi_offset 4, -8
 564              		.cfi_offset 14, -4
 565 0002 041E     		sub	r4, r0, #0
ARM GAS  C:\Users\NRAY~1.PRI\AppData\Local\Temp\ccCxBLAh.s 			page 20


 506:.\Generated_Source\PSoC4/ADC_1.c ****     uint32 result;
 507:.\Generated_Source\PSoC4/ADC_1.c **** 
 508:.\Generated_Source\PSoC4/ADC_1.c ****     /* Halt CPU in debug mode if channel is out of valid range */
 509:.\Generated_Source\PSoC4/ADC_1.c ****     CYASSERT(chan < ADC_1_TOTAL_CHANNELS_NUM);
 566              		.loc 1 509 0
 567 0004 012C     		cmp	r4, #1
 568 0006 02D9     		bls	.L43
 569              		.loc 1 509 0 is_stmt 0 discriminator 1
 570 0008 0020     		mov	r0, #0
 571              	.LVL37:
 572 000a FFF7FEFF 		bl	CyHalt
 573              	.LVL38:
 574              	.L43:
 510:.\Generated_Source\PSoC4/ADC_1.c **** 
 511:.\Generated_Source\PSoC4/ADC_1.c ****     if(chan < ADC_1_SEQUENCED_CHANNELS_NUM)
 575              		.loc 1 511 0 is_stmt 1
 576 000e 002C     		cmp	r4, #0
 577 0010 07D1     		bne	.L44
 512:.\Generated_Source\PSoC4/ADC_1.c ****     {
 513:.\Generated_Source\PSoC4/ADC_1.c ****         result = CY_GET_REG32((reg32 *)(ADC_1_SAR_CHAN_RESULT_IND + (uint32)(chan << 2u))) &
 578              		.loc 1 513 0
 579 0012 A400     		lsl	r4, r4, #2
 580              	.LVL39:
 581 0014 064B     		ldr	r3, .L46
 582 0016 9C46     		mov	ip, r3
 583 0018 6444     		add	r4, r4, ip
 584 001a 2068     		ldr	r0, [r4]
 585 001c 0004     		lsl	r0, r0, #16
 586 001e 000C     		lsr	r0, r0, #16
 587              	.LVL40:
 588 0020 03E0     		b	.L45
 589              	.LVL41:
 590              	.L44:
 514:.\Generated_Source\PSoC4/ADC_1.c ****                 ADC_1_RESULT_MASK;
 515:.\Generated_Source\PSoC4/ADC_1.c ****     }
 516:.\Generated_Source\PSoC4/ADC_1.c ****     else
 517:.\Generated_Source\PSoC4/ADC_1.c ****     {
 518:.\Generated_Source\PSoC4/ADC_1.c ****         #if(ADC_1_INJ_CHANNEL_ENABLED)
 519:.\Generated_Source\PSoC4/ADC_1.c ****             result = ADC_1_SAR_INJ_RESULT_REG & ADC_1_RESULT_MASK;
 591              		.loc 1 519 0
 592 0022 044B     		ldr	r3, .L46+4
 593 0024 1868     		ldr	r0, [r3]
 594 0026 0004     		lsl	r0, r0, #16
 595 0028 000C     		lsr	r0, r0, #16
 596              	.LVL42:
 597              	.L45:
 520:.\Generated_Source\PSoC4/ADC_1.c ****         #else
 521:.\Generated_Source\PSoC4/ADC_1.c ****             result = 0u;
 522:.\Generated_Source\PSoC4/ADC_1.c ****         #endif /* ADC_1_INJ_CHANNEL_ENABLED */
 523:.\Generated_Source\PSoC4/ADC_1.c ****     }
 524:.\Generated_Source\PSoC4/ADC_1.c **** 
 525:.\Generated_Source\PSoC4/ADC_1.c ****     return ( (int16)result );
 598              		.loc 1 525 0
 599 002a 00B2     		sxth	r0, r0
 600              	.LVL43:
 526:.\Generated_Source\PSoC4/ADC_1.c **** }
 601              		.loc 1 526 0
ARM GAS  C:\Users\NRAY~1.PRI\AppData\Local\Temp\ccCxBLAh.s 			page 21


 602              		@ sp needed
 603 002c 10BD     		pop	{r4, pc}
 604              	.L47:
 605 002e C046     		.align	2
 606              	.L46:
 607 0030 80013A40 		.word	1077543296
 608 0034 90023A40 		.word	1077543568
 609              		.cfi_endproc
 610              	.LFE8:
 611              		.size	ADC_1_GetResult16, .-ADC_1_GetResult16
 612              		.section	.text.ADC_1_SetChanMask,"ax",%progbits
 613              		.align	2
 614              		.global	ADC_1_SetChanMask
 615              		.code	16
 616              		.thumb_func
 617              		.type	ADC_1_SetChanMask, %function
 618              	ADC_1_SetChanMask:
 619              	.LFB9:
 527:.\Generated_Source\PSoC4/ADC_1.c **** 
 528:.\Generated_Source\PSoC4/ADC_1.c **** 
 529:.\Generated_Source\PSoC4/ADC_1.c **** /*******************************************************************************
 530:.\Generated_Source\PSoC4/ADC_1.c **** * Function Name: ADC_1_SetChanMask
 531:.\Generated_Source\PSoC4/ADC_1.c **** ********************************************************************************
 532:.\Generated_Source\PSoC4/ADC_1.c **** *
 533:.\Generated_Source\PSoC4/ADC_1.c **** * Summary:
 534:.\Generated_Source\PSoC4/ADC_1.c **** *  Sets the channel enable mask.
 535:.\Generated_Source\PSoC4/ADC_1.c **** *
 536:.\Generated_Source\PSoC4/ADC_1.c **** * Parameters:
 537:.\Generated_Source\PSoC4/ADC_1.c **** *  mask: Sets which channels that will be
 538:.\Generated_Source\PSoC4/ADC_1.c **** *  scanned. Setting bits for channels that do not exist will have no
 539:.\Generated_Source\PSoC4/ADC_1.c **** *  effect. For example, if only 6 channels were enabled, setting a
 540:.\Generated_Source\PSoC4/ADC_1.c **** *  mask of 0x0103 would only enable the last two channels (0 and 1).
 541:.\Generated_Source\PSoC4/ADC_1.c **** *  This API will not enable the injection channel.
 542:.\Generated_Source\PSoC4/ADC_1.c **** *  Examples: If the component is setup to sequence through 8
 543:.\Generated_Source\PSoC4/ADC_1.c **** *  channels, a mask of 0x000F would enable channels 0, 1, 2, and 3.
 544:.\Generated_Source\PSoC4/ADC_1.c **** *
 545:.\Generated_Source\PSoC4/ADC_1.c **** * Return:
 546:.\Generated_Source\PSoC4/ADC_1.c **** *  None.
 547:.\Generated_Source\PSoC4/ADC_1.c **** *
 548:.\Generated_Source\PSoC4/ADC_1.c **** *******************************************************************************/
 549:.\Generated_Source\PSoC4/ADC_1.c **** void ADC_1_SetChanMask(uint32 mask)
 550:.\Generated_Source\PSoC4/ADC_1.c **** {
 620              		.loc 1 550 0
 621              		.cfi_startproc
 622              	.LVL44:
 551:.\Generated_Source\PSoC4/ADC_1.c ****     ADC_1_SAR_CHAN_EN_REG = mask & ADC_1_MAX_CHANNELS_EN_MASK;
 623              		.loc 1 551 0
 624 0000 0123     		mov	r3, #1
 625 0002 1840     		and	r0, r3
 626              	.LVL45:
 627 0004 014B     		ldr	r3, .L49
 628 0006 1860     		str	r0, [r3]
 552:.\Generated_Source\PSoC4/ADC_1.c **** }
 629              		.loc 1 552 0
 630              		@ sp needed
 631 0008 7047     		bx	lr
 632              	.L50:
ARM GAS  C:\Users\NRAY~1.PRI\AppData\Local\Temp\ccCxBLAh.s 			page 22


 633 000a C046     		.align	2
 634              	.L49:
 635 000c 20003A40 		.word	1077542944
 636              		.cfi_endproc
 637              	.LFE9:
 638              		.size	ADC_1_SetChanMask, .-ADC_1_SetChanMask
 639              		.section	.text.ADC_1_EnableInjection,"ax",%progbits
 640              		.align	2
 641              		.global	ADC_1_EnableInjection
 642              		.code	16
 643              		.thumb_func
 644              		.type	ADC_1_EnableInjection, %function
 645              	ADC_1_EnableInjection:
 646              	.LFB10:
 553:.\Generated_Source\PSoC4/ADC_1.c **** 
 554:.\Generated_Source\PSoC4/ADC_1.c **** #if(ADC_1_INJ_CHANNEL_ENABLED)
 555:.\Generated_Source\PSoC4/ADC_1.c **** 
 556:.\Generated_Source\PSoC4/ADC_1.c **** 
 557:.\Generated_Source\PSoC4/ADC_1.c ****     /*******************************************************************************
 558:.\Generated_Source\PSoC4/ADC_1.c ****     * Function Name: ADC_1_EnableInjection
 559:.\Generated_Source\PSoC4/ADC_1.c ****     ********************************************************************************
 560:.\Generated_Source\PSoC4/ADC_1.c ****     *
 561:.\Generated_Source\PSoC4/ADC_1.c ****     * Summary:
 562:.\Generated_Source\PSoC4/ADC_1.c ****     *  Enables the injection channel for the next scan only.
 563:.\Generated_Source\PSoC4/ADC_1.c ****     *
 564:.\Generated_Source\PSoC4/ADC_1.c ****     * Parameters:
 565:.\Generated_Source\PSoC4/ADC_1.c ****     *  None.
 566:.\Generated_Source\PSoC4/ADC_1.c ****     *
 567:.\Generated_Source\PSoC4/ADC_1.c ****     * Return:
 568:.\Generated_Source\PSoC4/ADC_1.c ****     *  None.
 569:.\Generated_Source\PSoC4/ADC_1.c ****     *
 570:.\Generated_Source\PSoC4/ADC_1.c ****     *******************************************************************************/
 571:.\Generated_Source\PSoC4/ADC_1.c ****     void ADC_1_EnableInjection(void)
 572:.\Generated_Source\PSoC4/ADC_1.c ****     {
 647              		.loc 1 572 0
 648              		.cfi_startproc
 573:.\Generated_Source\PSoC4/ADC_1.c ****         ADC_1_SAR_INJ_CHAN_CONFIG_REG |= ADC_1_INJ_CHAN_EN;
 649              		.loc 1 573 0
 650 0000 034A     		ldr	r2, .L52
 651 0002 1368     		ldr	r3, [r2]
 652 0004 8021     		mov	r1, #128
 653 0006 0906     		lsl	r1, r1, #24
 654 0008 0B43     		orr	r3, r1
 655 000a 1360     		str	r3, [r2]
 574:.\Generated_Source\PSoC4/ADC_1.c ****     }
 656              		.loc 1 574 0
 657              		@ sp needed
 658 000c 7047     		bx	lr
 659              	.L53:
 660 000e C046     		.align	2
 661              	.L52:
 662 0010 80023A40 		.word	1077543552
 663              		.cfi_endproc
 664              	.LFE10:
 665              		.size	ADC_1_EnableInjection, .-ADC_1_EnableInjection
 666              		.section	.text.ADC_1_SetLowLimit,"ax",%progbits
 667              		.align	2
ARM GAS  C:\Users\NRAY~1.PRI\AppData\Local\Temp\ccCxBLAh.s 			page 23


 668              		.global	ADC_1_SetLowLimit
 669              		.code	16
 670              		.thumb_func
 671              		.type	ADC_1_SetLowLimit, %function
 672              	ADC_1_SetLowLimit:
 673              	.LFB11:
 575:.\Generated_Source\PSoC4/ADC_1.c **** 
 576:.\Generated_Source\PSoC4/ADC_1.c **** #endif /* ADC_1_INJ_CHANNEL_ENABLED */
 577:.\Generated_Source\PSoC4/ADC_1.c **** 
 578:.\Generated_Source\PSoC4/ADC_1.c **** 
 579:.\Generated_Source\PSoC4/ADC_1.c **** /*******************************************************************************
 580:.\Generated_Source\PSoC4/ADC_1.c **** * Function Name: ADC_1_SetLowLimit
 581:.\Generated_Source\PSoC4/ADC_1.c **** ********************************************************************************
 582:.\Generated_Source\PSoC4/ADC_1.c **** *
 583:.\Generated_Source\PSoC4/ADC_1.c **** * Summary:
 584:.\Generated_Source\PSoC4/ADC_1.c **** *  Sets the low limit parameter for a limit condition.
 585:.\Generated_Source\PSoC4/ADC_1.c **** *
 586:.\Generated_Source\PSoC4/ADC_1.c **** * Parameters:
 587:.\Generated_Source\PSoC4/ADC_1.c **** *  lowLimit: The low limit for a limit condition.
 588:.\Generated_Source\PSoC4/ADC_1.c **** *
 589:.\Generated_Source\PSoC4/ADC_1.c **** * Return:
 590:.\Generated_Source\PSoC4/ADC_1.c **** *  None.
 591:.\Generated_Source\PSoC4/ADC_1.c **** *
 592:.\Generated_Source\PSoC4/ADC_1.c **** *******************************************************************************/
 593:.\Generated_Source\PSoC4/ADC_1.c **** void ADC_1_SetLowLimit(uint32 lowLimit)
 594:.\Generated_Source\PSoC4/ADC_1.c **** {
 674              		.loc 1 594 0
 675              		.cfi_startproc
 676              	.LVL46:
 595:.\Generated_Source\PSoC4/ADC_1.c ****     ADC_1_SAR_RANGE_THRES_REG &= (uint32)(~ADC_1_RANGE_LOW_MASK);
 677              		.loc 1 595 0
 678 0000 054A     		ldr	r2, .L55
 679 0002 1368     		ldr	r3, [r2]
 680 0004 1B0C     		lsr	r3, r3, #16
 681 0006 1B04     		lsl	r3, r3, #16
 682 0008 1360     		str	r3, [r2]
 596:.\Generated_Source\PSoC4/ADC_1.c ****     ADC_1_SAR_RANGE_THRES_REG |= lowLimit & ADC_1_RANGE_LOW_MASK;
 683              		.loc 1 596 0
 684 000a 1368     		ldr	r3, [r2]
 685 000c 0004     		lsl	r0, r0, #16
 686              	.LVL47:
 687 000e 000C     		lsr	r0, r0, #16
 688 0010 1843     		orr	r0, r3
 689 0012 1060     		str	r0, [r2]
 597:.\Generated_Source\PSoC4/ADC_1.c **** }
 690              		.loc 1 597 0
 691              		@ sp needed
 692 0014 7047     		bx	lr
 693              	.L56:
 694 0016 C046     		.align	2
 695              	.L55:
 696 0018 18003A40 		.word	1077542936
 697              		.cfi_endproc
 698              	.LFE11:
 699              		.size	ADC_1_SetLowLimit, .-ADC_1_SetLowLimit
 700              		.section	.text.ADC_1_SetHighLimit,"ax",%progbits
 701              		.align	2
ARM GAS  C:\Users\NRAY~1.PRI\AppData\Local\Temp\ccCxBLAh.s 			page 24


 702              		.global	ADC_1_SetHighLimit
 703              		.code	16
 704              		.thumb_func
 705              		.type	ADC_1_SetHighLimit, %function
 706              	ADC_1_SetHighLimit:
 707              	.LFB12:
 598:.\Generated_Source\PSoC4/ADC_1.c **** 
 599:.\Generated_Source\PSoC4/ADC_1.c **** 
 600:.\Generated_Source\PSoC4/ADC_1.c **** /*******************************************************************************
 601:.\Generated_Source\PSoC4/ADC_1.c **** * Function Name: ADC_1_SetHighLimit
 602:.\Generated_Source\PSoC4/ADC_1.c **** ********************************************************************************
 603:.\Generated_Source\PSoC4/ADC_1.c **** *
 604:.\Generated_Source\PSoC4/ADC_1.c **** * Summary:
 605:.\Generated_Source\PSoC4/ADC_1.c **** *  Sets the low limit parameter for a limit condition.
 606:.\Generated_Source\PSoC4/ADC_1.c **** *
 607:.\Generated_Source\PSoC4/ADC_1.c **** * Parameters:
 608:.\Generated_Source\PSoC4/ADC_1.c **** *  highLimit: The high limit for a limit condition.
 609:.\Generated_Source\PSoC4/ADC_1.c **** *
 610:.\Generated_Source\PSoC4/ADC_1.c **** * Return:
 611:.\Generated_Source\PSoC4/ADC_1.c **** *  None.
 612:.\Generated_Source\PSoC4/ADC_1.c **** *
 613:.\Generated_Source\PSoC4/ADC_1.c **** *******************************************************************************/
 614:.\Generated_Source\PSoC4/ADC_1.c **** void ADC_1_SetHighLimit(uint32 highLimit)
 615:.\Generated_Source\PSoC4/ADC_1.c **** {
 708              		.loc 1 615 0
 709              		.cfi_startproc
 710              	.LVL48:
 616:.\Generated_Source\PSoC4/ADC_1.c ****     ADC_1_SAR_RANGE_THRES_REG &= (uint32)(~ADC_1_RANGE_HIGH_MASK);
 711              		.loc 1 616 0
 712 0000 044A     		ldr	r2, .L58
 713 0002 1368     		ldr	r3, [r2]
 714 0004 1B04     		lsl	r3, r3, #16
 715 0006 1B0C     		lsr	r3, r3, #16
 716 0008 1360     		str	r3, [r2]
 617:.\Generated_Source\PSoC4/ADC_1.c ****     ADC_1_SAR_RANGE_THRES_REG |= (uint32)(highLimit << ADC_1_RANGE_HIGH_OFFSET);
 717              		.loc 1 617 0
 718 000a 1368     		ldr	r3, [r2]
 719 000c 0004     		lsl	r0, r0, #16
 720              	.LVL49:
 721 000e 1843     		orr	r0, r3
 722 0010 1060     		str	r0, [r2]
 618:.\Generated_Source\PSoC4/ADC_1.c **** }
 723              		.loc 1 618 0
 724              		@ sp needed
 725 0012 7047     		bx	lr
 726              	.L59:
 727              		.align	2
 728              	.L58:
 729 0014 18003A40 		.word	1077542936
 730              		.cfi_endproc
 731              	.LFE12:
 732              		.size	ADC_1_SetHighLimit, .-ADC_1_SetHighLimit
 733              		.section	.text.ADC_1_SetLimitMask,"ax",%progbits
 734              		.align	2
 735              		.global	ADC_1_SetLimitMask
 736              		.code	16
 737              		.thumb_func
ARM GAS  C:\Users\NRAY~1.PRI\AppData\Local\Temp\ccCxBLAh.s 			page 25


 738              		.type	ADC_1_SetLimitMask, %function
 739              	ADC_1_SetLimitMask:
 740              	.LFB13:
 619:.\Generated_Source\PSoC4/ADC_1.c **** 
 620:.\Generated_Source\PSoC4/ADC_1.c **** 
 621:.\Generated_Source\PSoC4/ADC_1.c **** /*******************************************************************************
 622:.\Generated_Source\PSoC4/ADC_1.c **** * Function Name: ADC_1_SetLimitMask
 623:.\Generated_Source\PSoC4/ADC_1.c **** ********************************************************************************
 624:.\Generated_Source\PSoC4/ADC_1.c **** *
 625:.\Generated_Source\PSoC4/ADC_1.c **** * Summary:
 626:.\Generated_Source\PSoC4/ADC_1.c **** *  Sets the channel limit condition mask.
 627:.\Generated_Source\PSoC4/ADC_1.c **** *
 628:.\Generated_Source\PSoC4/ADC_1.c **** * Parameters:
 629:.\Generated_Source\PSoC4/ADC_1.c **** *  mask: Sets which channels that may cause a
 630:.\Generated_Source\PSoC4/ADC_1.c **** *  limit condition interrupt. Setting bits for channels that do not exist
 631:.\Generated_Source\PSoC4/ADC_1.c **** *  will have no effect. For example, if only 6 channels were enabled,
 632:.\Generated_Source\PSoC4/ADC_1.c **** *  setting a mask of 0x0103 would only enable the last two channels (0 and 1).
 633:.\Generated_Source\PSoC4/ADC_1.c **** *
 634:.\Generated_Source\PSoC4/ADC_1.c **** * Return:
 635:.\Generated_Source\PSoC4/ADC_1.c **** *  None.
 636:.\Generated_Source\PSoC4/ADC_1.c **** *
 637:.\Generated_Source\PSoC4/ADC_1.c **** *******************************************************************************/
 638:.\Generated_Source\PSoC4/ADC_1.c **** void ADC_1_SetLimitMask(uint32 mask)
 639:.\Generated_Source\PSoC4/ADC_1.c **** {
 741              		.loc 1 639 0
 742              		.cfi_startproc
 743              	.LVL50:
 640:.\Generated_Source\PSoC4/ADC_1.c ****     ADC_1_SAR_RANGE_INTR_MASK_REG = mask & ADC_1_MAX_CHANNELS_EN_MASK;
 744              		.loc 1 640 0
 745 0000 0123     		mov	r3, #1
 746 0002 1840     		and	r0, r3
 747              	.LVL51:
 748 0004 014B     		ldr	r3, .L61
 749 0006 1860     		str	r0, [r3]
 641:.\Generated_Source\PSoC4/ADC_1.c **** }
 750              		.loc 1 641 0
 751              		@ sp needed
 752 0008 7047     		bx	lr
 753              	.L62:
 754 000a C046     		.align	2
 755              	.L61:
 756 000c 38023A40 		.word	1077543480
 757              		.cfi_endproc
 758              	.LFE13:
 759              		.size	ADC_1_SetLimitMask, .-ADC_1_SetLimitMask
 760              		.section	.text.ADC_1_SetSatMask,"ax",%progbits
 761              		.align	2
 762              		.global	ADC_1_SetSatMask
 763              		.code	16
 764              		.thumb_func
 765              		.type	ADC_1_SetSatMask, %function
 766              	ADC_1_SetSatMask:
 767              	.LFB14:
 642:.\Generated_Source\PSoC4/ADC_1.c **** 
 643:.\Generated_Source\PSoC4/ADC_1.c **** 
 644:.\Generated_Source\PSoC4/ADC_1.c **** /*******************************************************************************
 645:.\Generated_Source\PSoC4/ADC_1.c **** * Function Name: ADC_1_SetSatMask
ARM GAS  C:\Users\NRAY~1.PRI\AppData\Local\Temp\ccCxBLAh.s 			page 26


 646:.\Generated_Source\PSoC4/ADC_1.c **** ********************************************************************************
 647:.\Generated_Source\PSoC4/ADC_1.c **** *
 648:.\Generated_Source\PSoC4/ADC_1.c **** * Summary:
 649:.\Generated_Source\PSoC4/ADC_1.c **** *  Sets the channel saturation event mask.
 650:.\Generated_Source\PSoC4/ADC_1.c **** *
 651:.\Generated_Source\PSoC4/ADC_1.c **** * Parameters:
 652:.\Generated_Source\PSoC4/ADC_1.c **** *  mask: Sets which channels that may cause a
 653:.\Generated_Source\PSoC4/ADC_1.c **** *  saturation event interrupt. Setting bits for channels that do not exist
 654:.\Generated_Source\PSoC4/ADC_1.c **** *  will have no effect. For example, if only 8 channels were enabled,
 655:.\Generated_Source\PSoC4/ADC_1.c **** *  setting a mask of 0x01C0 would only enable two channels (6 and 7).
 656:.\Generated_Source\PSoC4/ADC_1.c **** *
 657:.\Generated_Source\PSoC4/ADC_1.c **** * Return:
 658:.\Generated_Source\PSoC4/ADC_1.c **** *  None.
 659:.\Generated_Source\PSoC4/ADC_1.c **** *
 660:.\Generated_Source\PSoC4/ADC_1.c **** *******************************************************************************/
 661:.\Generated_Source\PSoC4/ADC_1.c **** void ADC_1_SetSatMask(uint32 mask)
 662:.\Generated_Source\PSoC4/ADC_1.c **** {
 768              		.loc 1 662 0
 769              		.cfi_startproc
 770              	.LVL52:
 663:.\Generated_Source\PSoC4/ADC_1.c ****     ADC_1_SAR_SATURATE_INTR_MASK_REG = mask & ADC_1_MAX_CHANNELS_EN_MASK;
 771              		.loc 1 663 0
 772 0000 0123     		mov	r3, #1
 773 0002 1840     		and	r0, r3
 774              	.LVL53:
 775 0004 014B     		ldr	r3, .L64
 776 0006 1860     		str	r0, [r3]
 664:.\Generated_Source\PSoC4/ADC_1.c **** }
 777              		.loc 1 664 0
 778              		@ sp needed
 779 0008 7047     		bx	lr
 780              	.L65:
 781 000a C046     		.align	2
 782              	.L64:
 783 000c 28023A40 		.word	1077543464
 784              		.cfi_endproc
 785              	.LFE14:
 786              		.size	ADC_1_SetSatMask, .-ADC_1_SetSatMask
 787              		.section	.text.ADC_1_SetOffset,"ax",%progbits
 788              		.align	2
 789              		.global	ADC_1_SetOffset
 790              		.code	16
 791              		.thumb_func
 792              		.type	ADC_1_SetOffset, %function
 793              	ADC_1_SetOffset:
 794              	.LFB15:
 665:.\Generated_Source\PSoC4/ADC_1.c **** 
 666:.\Generated_Source\PSoC4/ADC_1.c **** 
 667:.\Generated_Source\PSoC4/ADC_1.c **** /*******************************************************************************
 668:.\Generated_Source\PSoC4/ADC_1.c **** * Function Name: ADC_1_SetOffset
 669:.\Generated_Source\PSoC4/ADC_1.c **** ********************************************************************************
 670:.\Generated_Source\PSoC4/ADC_1.c **** *
 671:.\Generated_Source\PSoC4/ADC_1.c **** * Summary:
 672:.\Generated_Source\PSoC4/ADC_1.c **** *   Description: Sets the ADC offset which is used by the functions
 673:.\Generated_Source\PSoC4/ADC_1.c **** *   ADC_CountsTo_uVolts, ADC_CountsTo_mVolts and ADC_CountsTo_Volts
 674:.\Generated_Source\PSoC4/ADC_1.c **** *   to substract the offset from the given reading
 675:.\Generated_Source\PSoC4/ADC_1.c **** *   before calculating the voltage conversion.
ARM GAS  C:\Users\NRAY~1.PRI\AppData\Local\Temp\ccCxBLAh.s 			page 27


 676:.\Generated_Source\PSoC4/ADC_1.c **** *
 677:.\Generated_Source\PSoC4/ADC_1.c **** * Parameters:
 678:.\Generated_Source\PSoC4/ADC_1.c **** *  chan: ADC channel number.
 679:.\Generated_Source\PSoC4/ADC_1.c **** *  offset: This value is a measured value when the
 680:.\Generated_Source\PSoC4/ADC_1.c **** *          inputs are shorted or connected to the same input voltage.
 681:.\Generated_Source\PSoC4/ADC_1.c **** *
 682:.\Generated_Source\PSoC4/ADC_1.c **** * Return:
 683:.\Generated_Source\PSoC4/ADC_1.c **** *  None.
 684:.\Generated_Source\PSoC4/ADC_1.c **** *
 685:.\Generated_Source\PSoC4/ADC_1.c **** * Global variables:
 686:.\Generated_Source\PSoC4/ADC_1.c **** *  ADC_1_Offset:  Modified to set the user provided offset.
 687:.\Generated_Source\PSoC4/ADC_1.c **** *
 688:.\Generated_Source\PSoC4/ADC_1.c **** *******************************************************************************/
 689:.\Generated_Source\PSoC4/ADC_1.c **** void ADC_1_SetOffset(uint32 chan, int16 offset)
 690:.\Generated_Source\PSoC4/ADC_1.c **** {
 795              		.loc 1 690 0
 796              		.cfi_startproc
 797              	.LVL54:
 798 0000 38B5     		push	{r3, r4, r5, lr}
 799              		.cfi_def_cfa_offset 16
 800              		.cfi_offset 3, -16
 801              		.cfi_offset 4, -12
 802              		.cfi_offset 5, -8
 803              		.cfi_offset 14, -4
 804 0002 041C     		mov	r4, r0
 805 0004 0D1C     		mov	r5, r1
 691:.\Generated_Source\PSoC4/ADC_1.c ****     /* Halt CPU in debug mode if channel is out of valid range */
 692:.\Generated_Source\PSoC4/ADC_1.c ****     CYASSERT(chan < ADC_1_TOTAL_CHANNELS_NUM);
 806              		.loc 1 692 0
 807 0006 0128     		cmp	r0, #1
 808 0008 02D9     		bls	.L67
 809              		.loc 1 692 0 is_stmt 0 discriminator 1
 810 000a 0020     		mov	r0, #0
 811              	.LVL55:
 812 000c FFF7FEFF 		bl	CyHalt
 813              	.LVL56:
 814              	.L67:
 693:.\Generated_Source\PSoC4/ADC_1.c **** 
 694:.\Generated_Source\PSoC4/ADC_1.c ****     ADC_1_offset[chan] = offset;
 815              		.loc 1 694 0 is_stmt 1
 816 0010 6400     		lsl	r4, r4, #1
 817              	.LVL57:
 818 0012 014B     		ldr	r3, .L68
 819 0014 E552     		strh	r5, [r4, r3]
 695:.\Generated_Source\PSoC4/ADC_1.c **** }
 820              		.loc 1 695 0
 821              		@ sp needed
 822 0016 38BD     		pop	{r3, r4, r5, pc}
 823              	.L69:
 824              		.align	2
 825              	.L68:
 826 0018 00000000 		.word	ADC_1_offset
 827              		.cfi_endproc
 828              	.LFE15:
 829              		.size	ADC_1_SetOffset, .-ADC_1_SetOffset
 830              		.section	.text.ADC_1_SetGain,"ax",%progbits
 831              		.align	2
ARM GAS  C:\Users\NRAY~1.PRI\AppData\Local\Temp\ccCxBLAh.s 			page 28


 832              		.global	ADC_1_SetGain
 833              		.code	16
 834              		.thumb_func
 835              		.type	ADC_1_SetGain, %function
 836              	ADC_1_SetGain:
 837              	.LFB16:
 696:.\Generated_Source\PSoC4/ADC_1.c **** 
 697:.\Generated_Source\PSoC4/ADC_1.c **** 
 698:.\Generated_Source\PSoC4/ADC_1.c **** /*******************************************************************************
 699:.\Generated_Source\PSoC4/ADC_1.c **** * Function Name: ADC_1_SetGain
 700:.\Generated_Source\PSoC4/ADC_1.c **** ********************************************************************************
 701:.\Generated_Source\PSoC4/ADC_1.c **** *
 702:.\Generated_Source\PSoC4/ADC_1.c **** * Summary:
 703:.\Generated_Source\PSoC4/ADC_1.c **** *  Description: Sets the ADC gain in counts per 10 volt for the voltage
 704:.\Generated_Source\PSoC4/ADC_1.c **** *  conversion functions below. This value is set by default by the
 705:.\Generated_Source\PSoC4/ADC_1.c **** *  reference and input range settings. It should only be used to further
 706:.\Generated_Source\PSoC4/ADC_1.c **** *  calibrate the ADC with a known input or if an external reference is
 707:.\Generated_Source\PSoC4/ADC_1.c **** *  used. Affects the ADC_CountsTo_uVolts, ADC_CountsTo_mVolts
 708:.\Generated_Source\PSoC4/ADC_1.c **** *  and ADC_CountsTo_Volts functions by supplying the correct
 709:.\Generated_Source\PSoC4/ADC_1.c **** *  conversion between ADC counts and voltage.
 710:.\Generated_Source\PSoC4/ADC_1.c **** *
 711:.\Generated_Source\PSoC4/ADC_1.c **** * Parameters:
 712:.\Generated_Source\PSoC4/ADC_1.c **** *  chan: ADC channel number.
 713:.\Generated_Source\PSoC4/ADC_1.c **** *  adcGain: ADC gain in counts per 10 volts.
 714:.\Generated_Source\PSoC4/ADC_1.c **** *
 715:.\Generated_Source\PSoC4/ADC_1.c **** * Return:
 716:.\Generated_Source\PSoC4/ADC_1.c **** *  None.
 717:.\Generated_Source\PSoC4/ADC_1.c **** *
 718:.\Generated_Source\PSoC4/ADC_1.c **** * Global variables:
 719:.\Generated_Source\PSoC4/ADC_1.c **** *  ADC_1_CountsPer10Volt:  modified to set the ADC gain in counts
 720:.\Generated_Source\PSoC4/ADC_1.c **** *   per 10 volt.
 721:.\Generated_Source\PSoC4/ADC_1.c **** *
 722:.\Generated_Source\PSoC4/ADC_1.c **** *******************************************************************************/
 723:.\Generated_Source\PSoC4/ADC_1.c **** void ADC_1_SetGain(uint32 chan, int32 adcGain)
 724:.\Generated_Source\PSoC4/ADC_1.c **** {
 838              		.loc 1 724 0
 839              		.cfi_startproc
 840              	.LVL58:
 841 0000 38B5     		push	{r3, r4, r5, lr}
 842              		.cfi_def_cfa_offset 16
 843              		.cfi_offset 3, -16
 844              		.cfi_offset 4, -12
 845              		.cfi_offset 5, -8
 846              		.cfi_offset 14, -4
 847 0002 041C     		mov	r4, r0
 848 0004 0D1C     		mov	r5, r1
 725:.\Generated_Source\PSoC4/ADC_1.c ****     /* Halt CPU in debug mode if channel is out of valid range */
 726:.\Generated_Source\PSoC4/ADC_1.c ****     CYASSERT(chan < ADC_1_TOTAL_CHANNELS_NUM);
 849              		.loc 1 726 0
 850 0006 0128     		cmp	r0, #1
 851 0008 02D9     		bls	.L71
 852              		.loc 1 726 0 is_stmt 0 discriminator 1
 853 000a 0020     		mov	r0, #0
 854              	.LVL59:
 855 000c FFF7FEFF 		bl	CyHalt
 856              	.LVL60:
 857              	.L71:
ARM GAS  C:\Users\NRAY~1.PRI\AppData\Local\Temp\ccCxBLAh.s 			page 29


 727:.\Generated_Source\PSoC4/ADC_1.c **** 
 728:.\Generated_Source\PSoC4/ADC_1.c ****     ADC_1_countsPer10Volt[chan] = adcGain;
 858              		.loc 1 728 0 is_stmt 1
 859 0010 A400     		lsl	r4, r4, #2
 860              	.LVL61:
 861 0012 014B     		ldr	r3, .L72
 862 0014 E550     		str	r5, [r4, r3]
 729:.\Generated_Source\PSoC4/ADC_1.c **** }
 863              		.loc 1 729 0
 864              		@ sp needed
 865              	.LVL62:
 866 0016 38BD     		pop	{r3, r4, r5, pc}
 867              	.L73:
 868              		.align	2
 869              	.L72:
 870 0018 00000000 		.word	ADC_1_countsPer10Volt
 871              		.cfi_endproc
 872              	.LFE16:
 873              		.size	ADC_1_SetGain, .-ADC_1_SetGain
 874              		.global	__aeabi_idiv
 875              		.section	.text.ADC_1_CountsTo_mVolts,"ax",%progbits
 876              		.align	2
 877              		.global	ADC_1_CountsTo_mVolts
 878              		.code	16
 879              		.thumb_func
 880              		.type	ADC_1_CountsTo_mVolts, %function
 881              	ADC_1_CountsTo_mVolts:
 882              	.LFB17:
 730:.\Generated_Source\PSoC4/ADC_1.c **** 
 731:.\Generated_Source\PSoC4/ADC_1.c **** 
 732:.\Generated_Source\PSoC4/ADC_1.c **** #if(ADC_1_DEFAULT_JUSTIFICATION_SEL == ADC_1__RIGHT)
 733:.\Generated_Source\PSoC4/ADC_1.c **** 
 734:.\Generated_Source\PSoC4/ADC_1.c **** 
 735:.\Generated_Source\PSoC4/ADC_1.c ****     /*******************************************************************************
 736:.\Generated_Source\PSoC4/ADC_1.c ****     * Function Name: ADC_1_CountsTo_mVolts
 737:.\Generated_Source\PSoC4/ADC_1.c ****     ********************************************************************************
 738:.\Generated_Source\PSoC4/ADC_1.c ****     *
 739:.\Generated_Source\PSoC4/ADC_1.c ****     * Summary:
 740:.\Generated_Source\PSoC4/ADC_1.c ****     *  This function converts ADC counts to mVolts
 741:.\Generated_Source\PSoC4/ADC_1.c ****     *  This function is not available when left data format justification selected.
 742:.\Generated_Source\PSoC4/ADC_1.c ****     *
 743:.\Generated_Source\PSoC4/ADC_1.c ****     * Parameters:
 744:.\Generated_Source\PSoC4/ADC_1.c ****     *  chan: The ADC channel number.
 745:.\Generated_Source\PSoC4/ADC_1.c ****     *  adcCounts: Result from the ADC conversion
 746:.\Generated_Source\PSoC4/ADC_1.c ****     *
 747:.\Generated_Source\PSoC4/ADC_1.c ****     * Return:
 748:.\Generated_Source\PSoC4/ADC_1.c ****     *  Results in mVolts
 749:.\Generated_Source\PSoC4/ADC_1.c ****     *
 750:.\Generated_Source\PSoC4/ADC_1.c ****     * Global variables:
 751:.\Generated_Source\PSoC4/ADC_1.c ****     *  ADC_1_countsPer10Volt:  used to convert ADC counts to mVolts.
 752:.\Generated_Source\PSoC4/ADC_1.c ****     *  ADC_1_Offset:  Used as the offset while converting ADC counts
 753:.\Generated_Source\PSoC4/ADC_1.c ****     *   to mVolts.
 754:.\Generated_Source\PSoC4/ADC_1.c ****     *
 755:.\Generated_Source\PSoC4/ADC_1.c ****     *******************************************************************************/
 756:.\Generated_Source\PSoC4/ADC_1.c ****     int16 ADC_1_CountsTo_mVolts(uint32 chan, int16 adcCounts)
 757:.\Generated_Source\PSoC4/ADC_1.c ****     {
 883              		.loc 1 757 0
ARM GAS  C:\Users\NRAY~1.PRI\AppData\Local\Temp\ccCxBLAh.s 			page 30


 884              		.cfi_startproc
 885              	.LVL63:
 886 0000 38B5     		push	{r3, r4, r5, lr}
 887              		.cfi_def_cfa_offset 16
 888              		.cfi_offset 3, -16
 889              		.cfi_offset 4, -12
 890              		.cfi_offset 5, -8
 891              		.cfi_offset 14, -4
 892 0002 041C     		mov	r4, r0
 893 0004 0D1C     		mov	r5, r1
 758:.\Generated_Source\PSoC4/ADC_1.c ****         int16 mVolts;
 759:.\Generated_Source\PSoC4/ADC_1.c **** 
 760:.\Generated_Source\PSoC4/ADC_1.c ****         /* Halt CPU in debug mode if channel is out of valid range */
 761:.\Generated_Source\PSoC4/ADC_1.c ****         CYASSERT(chan < ADC_1_TOTAL_CHANNELS_NUM);
 894              		.loc 1 761 0
 895 0006 0128     		cmp	r0, #1
 896 0008 02D9     		bls	.L75
 897              		.loc 1 761 0 is_stmt 0 discriminator 1
 898 000a 0020     		mov	r0, #0
 899              	.LVL64:
 900 000c FFF7FEFF 		bl	CyHalt
 901              	.LVL65:
 902              	.L75:
 762:.\Generated_Source\PSoC4/ADC_1.c **** 
 763:.\Generated_Source\PSoC4/ADC_1.c ****         /* Divide the adcCount when accumulate averaging mode selected */
 764:.\Generated_Source\PSoC4/ADC_1.c ****         #if(ADC_1_DEFAULT_AVG_MODE == ADC_1__ACCUMULATE)
 765:.\Generated_Source\PSoC4/ADC_1.c ****             if((ADC_1_channelsConfig[chan] & ADC_1_AVERAGING_EN) != 0u)
 766:.\Generated_Source\PSoC4/ADC_1.c ****             {
 767:.\Generated_Source\PSoC4/ADC_1.c ****                 adcCounts /= ADC_1_DEFAULT_AVG_SAMPLES_DIV;
 768:.\Generated_Source\PSoC4/ADC_1.c ****             }
 769:.\Generated_Source\PSoC4/ADC_1.c ****         #endif /* ADC_1_DEFAULT_AVG_MODE == ADC_1__ACCUMULATE */
 770:.\Generated_Source\PSoC4/ADC_1.c **** 
 771:.\Generated_Source\PSoC4/ADC_1.c ****         /* Subtract ADC offset */
 772:.\Generated_Source\PSoC4/ADC_1.c ****         adcCounts -= ADC_1_offset[chan];
 903              		.loc 1 772 0 is_stmt 1
 904 0010 6300     		lsl	r3, r4, #1
 905 0012 0F4A     		ldr	r2, .L78
 906 0014 995A     		ldrh	r1, [r3, r2]
 907 0016 691A     		sub	r1, r5, r1
 908 0018 09B2     		sxth	r1, r1
 909              	.LVL66:
 773:.\Generated_Source\PSoC4/ADC_1.c **** 
 774:.\Generated_Source\PSoC4/ADC_1.c ****         mVolts = (int16)((((int32)adcCounts * ADC_1_10MV_COUNTS) + ( (adcCounts > 0) ?
 910              		.loc 1 774 0
 911 001a 0E48     		ldr	r0, .L78+4
 912 001c 021C     		mov	r2, r0
 913 001e 4A43     		mul	r2, r1
 775:.\Generated_Source\PSoC4/ADC_1.c ****                  (ADC_1_countsPer10Volt[chan] / 2) : (-(ADC_1_countsPer10Volt[chan] / 2)) ))
 914              		.loc 1 775 0
 915 0020 0029     		cmp	r1, #0
 916 0022 06DD     		ble	.L76
 917              		.loc 1 775 0 is_stmt 0 discriminator 1
 918 0024 A300     		lsl	r3, r4, #2
 919 0026 0C49     		ldr	r1, .L78+8
 920              	.LVL67:
 921 0028 5B58     		ldr	r3, [r3, r1]
 922 002a D80F     		lsr	r0, r3, #31
ARM GAS  C:\Users\NRAY~1.PRI\AppData\Local\Temp\ccCxBLAh.s 			page 31


 923 002c C018     		add	r0, r0, r3
 924 002e 4310     		asr	r3, r0, #1
 925 0030 06E0     		b	.L77
 926              	.LVL68:
 927              	.L76:
 928              		.loc 1 775 0 discriminator 2
 929 0032 A300     		lsl	r3, r4, #2
 930 0034 0849     		ldr	r1, .L78+8
 931              	.LVL69:
 932 0036 5B58     		ldr	r3, [r3, r1]
 933 0038 D80F     		lsr	r0, r3, #31
 934 003a C318     		add	r3, r0, r3
 935 003c 5B10     		asr	r3, r3, #1
 936 003e 5B42     		neg	r3, r3
 937              	.L77:
 774:.\Generated_Source\PSoC4/ADC_1.c ****                  (ADC_1_countsPer10Volt[chan] / 2) : (-(ADC_1_countsPer10Volt[chan] / 2)) ))
 938              		.loc 1 774 0 is_stmt 1
 939 0040 D018     		add	r0, r2, r3
 776:.\Generated_Source\PSoC4/ADC_1.c ****                  / ADC_1_countsPer10Volt[chan]);
 940              		.loc 1 776 0
 941 0042 A400     		lsl	r4, r4, #2
 942              	.LVL70:
 943 0044 044B     		ldr	r3, .L78+8
 944 0046 E158     		ldr	r1, [r4, r3]
 945 0048 FFF7FEFF 		bl	__aeabi_idiv
 946              	.LVL71:
 777:.\Generated_Source\PSoC4/ADC_1.c **** 
 778:.\Generated_Source\PSoC4/ADC_1.c ****         return( mVolts );
 947              		.loc 1 778 0
 948 004c 00B2     		sxth	r0, r0
 779:.\Generated_Source\PSoC4/ADC_1.c ****     }
 949              		.loc 1 779 0
 950              		@ sp needed
 951 004e 38BD     		pop	{r3, r4, r5, pc}
 952              	.L79:
 953              		.align	2
 954              	.L78:
 955 0050 00000000 		.word	ADC_1_offset
 956 0054 10270000 		.word	10000
 957 0058 00000000 		.word	ADC_1_countsPer10Volt
 958              		.cfi_endproc
 959              	.LFE17:
 960              		.size	ADC_1_CountsTo_mVolts, .-ADC_1_CountsTo_mVolts
 961              		.global	__aeabi_lmul
 962              		.global	__aeabi_ldivmod
 963              		.section	.text.ADC_1_CountsTo_uVolts,"ax",%progbits
 964              		.align	2
 965              		.global	ADC_1_CountsTo_uVolts
 966              		.code	16
 967              		.thumb_func
 968              		.type	ADC_1_CountsTo_uVolts, %function
 969              	ADC_1_CountsTo_uVolts:
 970              	.LFB18:
 780:.\Generated_Source\PSoC4/ADC_1.c **** 
 781:.\Generated_Source\PSoC4/ADC_1.c **** 
 782:.\Generated_Source\PSoC4/ADC_1.c ****     /*******************************************************************************
 783:.\Generated_Source\PSoC4/ADC_1.c ****     * Function Name: ADC_1_CountsTo_uVolts
ARM GAS  C:\Users\NRAY~1.PRI\AppData\Local\Temp\ccCxBLAh.s 			page 32


 784:.\Generated_Source\PSoC4/ADC_1.c ****     ********************************************************************************
 785:.\Generated_Source\PSoC4/ADC_1.c ****     *
 786:.\Generated_Source\PSoC4/ADC_1.c ****     * Summary:
 787:.\Generated_Source\PSoC4/ADC_1.c ****     *  This function converts ADC counts to micro Volts
 788:.\Generated_Source\PSoC4/ADC_1.c ****     *  This function is not available when left data format justification selected.
 789:.\Generated_Source\PSoC4/ADC_1.c ****     *
 790:.\Generated_Source\PSoC4/ADC_1.c ****     * Parameters:
 791:.\Generated_Source\PSoC4/ADC_1.c ****     *  chan: The ADC channel number.
 792:.\Generated_Source\PSoC4/ADC_1.c ****     *  adcCounts: Result from the ADC conversion
 793:.\Generated_Source\PSoC4/ADC_1.c ****     *
 794:.\Generated_Source\PSoC4/ADC_1.c ****     * Return:
 795:.\Generated_Source\PSoC4/ADC_1.c ****     *  Results in uVolts
 796:.\Generated_Source\PSoC4/ADC_1.c ****     *
 797:.\Generated_Source\PSoC4/ADC_1.c ****     * Global variables:
 798:.\Generated_Source\PSoC4/ADC_1.c ****     *  ADC_1_countsPer10Volt:  used to convert ADC counts to uVolts.
 799:.\Generated_Source\PSoC4/ADC_1.c ****     *  ADC_1_Offset:  Used as the offset while converting ADC counts
 800:.\Generated_Source\PSoC4/ADC_1.c ****     *   to mVolts.
 801:.\Generated_Source\PSoC4/ADC_1.c ****     *
 802:.\Generated_Source\PSoC4/ADC_1.c ****     * Theory:
 803:.\Generated_Source\PSoC4/ADC_1.c ****     *  Care must be taken to not exceed the maximum value for a 31 bit signed
 804:.\Generated_Source\PSoC4/ADC_1.c ****     *  number in the conversion to uVolts and at the same time not loose
 805:.\Generated_Source\PSoC4/ADC_1.c ****     *  resolution.
 806:.\Generated_Source\PSoC4/ADC_1.c ****     *  To convert adcCounts to microVolts it is required to be multiplied
 807:.\Generated_Source\PSoC4/ADC_1.c ****     *  on 10 million and later divide on gain in counts per 10V.
 808:.\Generated_Source\PSoC4/ADC_1.c ****     *
 809:.\Generated_Source\PSoC4/ADC_1.c ****     *******************************************************************************/
 810:.\Generated_Source\PSoC4/ADC_1.c ****     int32 ADC_1_CountsTo_uVolts(uint32 chan, int16 adcCounts)
 811:.\Generated_Source\PSoC4/ADC_1.c ****     {
 971              		.loc 1 811 0
 972              		.cfi_startproc
 973              	.LVL72:
 974 0000 38B5     		push	{r3, r4, r5, lr}
 975              		.cfi_def_cfa_offset 16
 976              		.cfi_offset 3, -16
 977              		.cfi_offset 4, -12
 978              		.cfi_offset 5, -8
 979              		.cfi_offset 14, -4
 980 0002 051C     		mov	r5, r0
 981 0004 0C1C     		mov	r4, r1
 812:.\Generated_Source\PSoC4/ADC_1.c ****         int64 uVolts;
 813:.\Generated_Source\PSoC4/ADC_1.c **** 
 814:.\Generated_Source\PSoC4/ADC_1.c ****         /* Halt CPU in debug mode if channel is out of valid range */
 815:.\Generated_Source\PSoC4/ADC_1.c ****         CYASSERT(chan < ADC_1_TOTAL_CHANNELS_NUM);
 982              		.loc 1 815 0
 983 0006 0128     		cmp	r0, #1
 984 0008 02D9     		bls	.L81
 985              		.loc 1 815 0 is_stmt 0 discriminator 1
 986 000a 0020     		mov	r0, #0
 987              	.LVL73:
 988 000c FFF7FEFF 		bl	CyHalt
 989              	.LVL74:
 990              	.L81:
 816:.\Generated_Source\PSoC4/ADC_1.c **** 
 817:.\Generated_Source\PSoC4/ADC_1.c ****         /* Divide the adcCount when accumulate averaging mode selected */
 818:.\Generated_Source\PSoC4/ADC_1.c ****         #if(ADC_1_DEFAULT_AVG_MODE == ADC_1__ACCUMULATE)
 819:.\Generated_Source\PSoC4/ADC_1.c ****             if((ADC_1_channelsConfig[chan] & ADC_1_AVERAGING_EN) != 0u)
 820:.\Generated_Source\PSoC4/ADC_1.c ****             {
ARM GAS  C:\Users\NRAY~1.PRI\AppData\Local\Temp\ccCxBLAh.s 			page 33


 821:.\Generated_Source\PSoC4/ADC_1.c ****                 adcCounts /= ADC_1_DEFAULT_AVG_SAMPLES_DIV;
 822:.\Generated_Source\PSoC4/ADC_1.c ****             }
 823:.\Generated_Source\PSoC4/ADC_1.c ****         #endif /* ADC_1_DEFAULT_AVG_MODE == ADC_1__ACCUMULATE */
 824:.\Generated_Source\PSoC4/ADC_1.c **** 
 825:.\Generated_Source\PSoC4/ADC_1.c ****         /* Subtract ADC offset */
 826:.\Generated_Source\PSoC4/ADC_1.c ****         adcCounts -= ADC_1_offset[chan];
 991              		.loc 1 826 0 is_stmt 1
 992 0010 6A00     		lsl	r2, r5, #1
 993 0012 084B     		ldr	r3, .L82
 994 0014 D05A     		ldrh	r0, [r2, r3]
 995 0016 201A     		sub	r0, r4, r0
 996 0018 00B2     		sxth	r0, r0
 997              	.LVL75:
 827:.\Generated_Source\PSoC4/ADC_1.c **** 
 828:.\Generated_Source\PSoC4/ADC_1.c ****         uVolts = ((int64)adcCounts * ADC_1_10UV_COUNTS) / ADC_1_countsPer10Volt[chan];
 998              		.loc 1 828 0
 999 001a C117     		asr	r1, r0, #31
 1000 001c 064A     		ldr	r2, .L82+4
 1001 001e 0023     		mov	r3, #0
 1002 0020 FFF7FEFF 		bl	__aeabi_lmul
 1003              	.LVL76:
 1004 0024 AD00     		lsl	r5, r5, #2
 1005              	.LVL77:
 1006 0026 054B     		ldr	r3, .L82+8
 1007 0028 EA58     		ldr	r2, [r5, r3]
 1008 002a D317     		asr	r3, r2, #31
 1009 002c FFF7FEFF 		bl	__aeabi_ldivmod
 1010              	.LVL78:
 829:.\Generated_Source\PSoC4/ADC_1.c **** 
 830:.\Generated_Source\PSoC4/ADC_1.c ****         return( (int32)uVolts );
 831:.\Generated_Source\PSoC4/ADC_1.c ****     }
 1011              		.loc 1 831 0
 1012              		@ sp needed
 1013 0030 38BD     		pop	{r3, r4, r5, pc}
 1014              	.L83:
 1015 0032 C046     		.align	2
 1016              	.L82:
 1017 0034 00000000 		.word	ADC_1_offset
 1018 0038 80969800 		.word	10000000
 1019 003c 00000000 		.word	ADC_1_countsPer10Volt
 1020              		.cfi_endproc
 1021              	.LFE18:
 1022              		.size	ADC_1_CountsTo_uVolts, .-ADC_1_CountsTo_uVolts
 1023              		.global	__aeabi_i2f
 1024              		.global	__aeabi_fmul
 1025              		.global	__aeabi_fdiv
 1026              		.section	.text.ADC_1_CountsTo_Volts,"ax",%progbits
 1027              		.align	2
 1028              		.global	ADC_1_CountsTo_Volts
 1029              		.code	16
 1030              		.thumb_func
 1031              		.type	ADC_1_CountsTo_Volts, %function
 1032              	ADC_1_CountsTo_Volts:
 1033              	.LFB19:
 832:.\Generated_Source\PSoC4/ADC_1.c **** 
 833:.\Generated_Source\PSoC4/ADC_1.c **** 
 834:.\Generated_Source\PSoC4/ADC_1.c ****     /*******************************************************************************
ARM GAS  C:\Users\NRAY~1.PRI\AppData\Local\Temp\ccCxBLAh.s 			page 34


 835:.\Generated_Source\PSoC4/ADC_1.c ****     * Function Name: ADC_1_CountsTo_Volts
 836:.\Generated_Source\PSoC4/ADC_1.c ****     ********************************************************************************
 837:.\Generated_Source\PSoC4/ADC_1.c ****     *
 838:.\Generated_Source\PSoC4/ADC_1.c ****     * Summary:
 839:.\Generated_Source\PSoC4/ADC_1.c ****     *  Converts the ADC output to Volts as a floating point number.
 840:.\Generated_Source\PSoC4/ADC_1.c ****     *  This function is not available when left data format justification selected.
 841:.\Generated_Source\PSoC4/ADC_1.c ****     *
 842:.\Generated_Source\PSoC4/ADC_1.c ****     * Parameters:
 843:.\Generated_Source\PSoC4/ADC_1.c ****     *  chan: The ADC channel number.
 844:.\Generated_Source\PSoC4/ADC_1.c ****     *  Result from the ADC conversion
 845:.\Generated_Source\PSoC4/ADC_1.c ****     *
 846:.\Generated_Source\PSoC4/ADC_1.c ****     * Return:
 847:.\Generated_Source\PSoC4/ADC_1.c ****     *  Results in Volts
 848:.\Generated_Source\PSoC4/ADC_1.c ****     *
 849:.\Generated_Source\PSoC4/ADC_1.c ****     * Global variables:
 850:.\Generated_Source\PSoC4/ADC_1.c ****     *  ADC_1_countsPer10Volt:  used to convert ADC counts to Volts.
 851:.\Generated_Source\PSoC4/ADC_1.c ****     *  ADC_1_Offset:  Used as the offset while converting ADC counts
 852:.\Generated_Source\PSoC4/ADC_1.c ****     *   to mVolts.
 853:.\Generated_Source\PSoC4/ADC_1.c ****     *
 854:.\Generated_Source\PSoC4/ADC_1.c ****     *******************************************************************************/
 855:.\Generated_Source\PSoC4/ADC_1.c ****     float32 ADC_1_CountsTo_Volts(uint32 chan, int16 adcCounts)
 856:.\Generated_Source\PSoC4/ADC_1.c ****     {
 1034              		.loc 1 856 0
 1035              		.cfi_startproc
 1036              	.LVL79:
 1037 0000 38B5     		push	{r3, r4, r5, lr}
 1038              		.cfi_def_cfa_offset 16
 1039              		.cfi_offset 3, -16
 1040              		.cfi_offset 4, -12
 1041              		.cfi_offset 5, -8
 1042              		.cfi_offset 14, -4
 1043 0002 041C     		mov	r4, r0
 1044 0004 0D1C     		mov	r5, r1
 857:.\Generated_Source\PSoC4/ADC_1.c ****         float32 volts;
 858:.\Generated_Source\PSoC4/ADC_1.c **** 
 859:.\Generated_Source\PSoC4/ADC_1.c ****         /* Halt CPU in debug mode if channel is out of valid range */
 860:.\Generated_Source\PSoC4/ADC_1.c ****         CYASSERT(chan < ADC_1_TOTAL_CHANNELS_NUM);
 1045              		.loc 1 860 0
 1046 0006 0128     		cmp	r0, #1
 1047 0008 02D9     		bls	.L85
 1048              		.loc 1 860 0 is_stmt 0 discriminator 1
 1049 000a 0020     		mov	r0, #0
 1050              	.LVL80:
 1051 000c FFF7FEFF 		bl	CyHalt
 1052              	.LVL81:
 1053              	.L85:
 861:.\Generated_Source\PSoC4/ADC_1.c **** 
 862:.\Generated_Source\PSoC4/ADC_1.c ****         /* Divide the adcCount when accumulate averaging mode selected */
 863:.\Generated_Source\PSoC4/ADC_1.c ****         #if(ADC_1_DEFAULT_AVG_MODE == ADC_1__ACCUMULATE)
 864:.\Generated_Source\PSoC4/ADC_1.c ****             if((ADC_1_channelsConfig[chan] & ADC_1_AVERAGING_EN) != 0u)
 865:.\Generated_Source\PSoC4/ADC_1.c ****             {
 866:.\Generated_Source\PSoC4/ADC_1.c ****                 adcCounts /= ADC_1_DEFAULT_AVG_SAMPLES_DIV;
 867:.\Generated_Source\PSoC4/ADC_1.c ****             }
 868:.\Generated_Source\PSoC4/ADC_1.c ****         #endif /* ADC_1_DEFAULT_AVG_MODE == ADC_1__ACCUMULATE */
 869:.\Generated_Source\PSoC4/ADC_1.c **** 
 870:.\Generated_Source\PSoC4/ADC_1.c ****         /* Subtract ADC offset */
 871:.\Generated_Source\PSoC4/ADC_1.c ****         adcCounts -= ADC_1_offset[chan];
ARM GAS  C:\Users\NRAY~1.PRI\AppData\Local\Temp\ccCxBLAh.s 			page 35


 1054              		.loc 1 871 0 is_stmt 1
 1055 0010 6200     		lsl	r2, r4, #1
 1056 0012 0A4B     		ldr	r3, .L86
 1057 0014 D05A     		ldrh	r0, [r2, r3]
 1058 0016 281A     		sub	r0, r5, r0
 1059 0018 00B2     		sxth	r0, r0
 1060              	.LVL82:
 872:.\Generated_Source\PSoC4/ADC_1.c **** 
 873:.\Generated_Source\PSoC4/ADC_1.c ****         volts = ((float32)adcCounts * ADC_1_10V_COUNTS) / (float32)ADC_1_countsPer10Volt[chan];
 1061              		.loc 1 873 0
 1062 001a FFF7FEFF 		bl	__aeabi_i2f
 1063              	.LVL83:
 1064 001e 0849     		ldr	r1, .L86+4
 1065 0020 FFF7FEFF 		bl	__aeabi_fmul
 1066              	.LVL84:
 1067 0024 051C     		add	r5, r0, #0
 1068 0026 A400     		lsl	r4, r4, #2
 1069              	.LVL85:
 1070 0028 064B     		ldr	r3, .L86+8
 1071 002a E058     		ldr	r0, [r4, r3]
 1072 002c FFF7FEFF 		bl	__aeabi_i2f
 1073              	.LVL86:
 1074 0030 011C     		add	r1, r0, #0
 1075 0032 281C     		add	r0, r5, #0
 1076 0034 FFF7FEFF 		bl	__aeabi_fdiv
 1077              	.LVL87:
 874:.\Generated_Source\PSoC4/ADC_1.c **** 
 875:.\Generated_Source\PSoC4/ADC_1.c ****         return( volts );
 876:.\Generated_Source\PSoC4/ADC_1.c ****     }
 1078              		.loc 1 876 0
 1079              		@ sp needed
 1080 0038 38BD     		pop	{r3, r4, r5, pc}
 1081              	.L87:
 1082 003a C046     		.align	2
 1083              	.L86:
 1084 003c 00000000 		.word	ADC_1_offset
 1085 0040 00002041 		.word	1092616192
 1086 0044 00000000 		.word	ADC_1_countsPer10Volt
 1087              		.cfi_endproc
 1088              	.LFE19:
 1089              		.size	ADC_1_CountsTo_Volts, .-ADC_1_CountsTo_Volts
 1090              		.comm	ADC_1_countsPer10Volt,8,4
 1091              		.comm	ADC_1_offset,4,4
 1092              		.global	ADC_1_initVar
 1093              		.section	.rodata
 1094              		.align	2
 1095              		.set	.LANCHOR0,. + 0
 1096              		.type	ADC_1_channelsConfig, %object
 1097              		.size	ADC_1_channelsConfig, 8
 1098              	ADC_1_channelsConfig:
 1099 0000 00040000 		.word	1024
 1100 0004 00040000 		.word	1024
 1101              		.type	ADC_1_InputsPlacement.4774, %object
 1102              		.size	ADC_1_InputsPlacement.4774, 2
 1103              	ADC_1_InputsPlacement.4774:
 1104 0008 02       		.byte	2
 1105 0009 70       		.byte	112
ARM GAS  C:\Users\NRAY~1.PRI\AppData\Local\Temp\ccCxBLAh.s 			page 36


 1106 000a 0000     		.bss
 1107              		.set	.LANCHOR1,. + 0
 1108              		.type	ADC_1_initVar, %object
 1109              		.size	ADC_1_initVar, 1
 1110              	ADC_1_initVar:
 1111 0000 00       		.space	1
 1112              		.text
 1113              	.Letext0:
 1114              		.file 2 ".\\Generated_Source\\PSoC4\\cytypes.h"
 1115              		.file 3 ".\\Generated_Source\\PSoC4\\CyLib.h"