ARM GAS  C:\Users\NRAY~1.PRI\AppData\Local\Temp\ccm5w3V3.s 			page 1


   1              		.cpu cortex-m0
   2              		.fpu softvfp
   3              		.eabi_attribute 20, 1
   4              		.eabi_attribute 21, 1
   5              		.eabi_attribute 23, 3
   6              		.eabi_attribute 24, 1
   7              		.eabi_attribute 25, 1
   8              		.eabi_attribute 26, 1
   9              		.eabi_attribute 30, 1
  10              		.eabi_attribute 34, 0
  11              		.eabi_attribute 18, 4
  12              		.code	16
  13              		.file	"cyfitter_cfg.c"
  14              		.text
  15              	.Ltext0:
  16              		.cfi_sections	.debug_frame
  17              		.section	.text.cfg_write_bytes32,"ax",%progbits
  18              		.align	2
  19              		.code	16
  20              		.thumb_func
  21              		.type	cfg_write_bytes32, %function
  22              	cfg_write_bytes32:
  23              	.LFB4:
  24              		.file 1 ".\\Generated_Source\\PSoC4\\cyfitter_cfg.c"
   1:.\Generated_Source\PSoC4/cyfitter_cfg.c **** /*******************************************************************************
   2:.\Generated_Source\PSoC4/cyfitter_cfg.c **** * File Name: cyfitter_cfg.c
   3:.\Generated_Source\PSoC4/cyfitter_cfg.c **** * 
   4:.\Generated_Source\PSoC4/cyfitter_cfg.c **** * PSoC Creator  3.3 SP2
   5:.\Generated_Source\PSoC4/cyfitter_cfg.c **** *
   6:.\Generated_Source\PSoC4/cyfitter_cfg.c **** * Description:
   7:.\Generated_Source\PSoC4/cyfitter_cfg.c **** * This file contains device initialization code.
   8:.\Generated_Source\PSoC4/cyfitter_cfg.c **** * Except for the user defined sections in CyClockStartupError(), this file should not be modified.
   9:.\Generated_Source\PSoC4/cyfitter_cfg.c **** * This file is automatically generated by PSoC Creator.
  10:.\Generated_Source\PSoC4/cyfitter_cfg.c **** *
  11:.\Generated_Source\PSoC4/cyfitter_cfg.c **** ********************************************************************************
  12:.\Generated_Source\PSoC4/cyfitter_cfg.c **** * Copyright (c) 2007-2016 Cypress Semiconductor.  All rights reserved.
  13:.\Generated_Source\PSoC4/cyfitter_cfg.c **** * You may use this file only in accordance with the license, terms, conditions, 
  14:.\Generated_Source\PSoC4/cyfitter_cfg.c **** * disclaimers, and limitations in the end user license agreement accompanying 
  15:.\Generated_Source\PSoC4/cyfitter_cfg.c **** * the software package with which this file was provided.
  16:.\Generated_Source\PSoC4/cyfitter_cfg.c **** ********************************************************************************/
  17:.\Generated_Source\PSoC4/cyfitter_cfg.c **** 
  18:.\Generated_Source\PSoC4/cyfitter_cfg.c **** #include <string.h>
  19:.\Generated_Source\PSoC4/cyfitter_cfg.c **** #include "cytypes.h"
  20:.\Generated_Source\PSoC4/cyfitter_cfg.c **** #include "cydevice_trm.h"
  21:.\Generated_Source\PSoC4/cyfitter_cfg.c **** #include "cyfitter.h"
  22:.\Generated_Source\PSoC4/cyfitter_cfg.c **** #include "CyLib.h"
  23:.\Generated_Source\PSoC4/cyfitter_cfg.c **** #include "cyfitter_cfg.h"
  24:.\Generated_Source\PSoC4/cyfitter_cfg.c **** 
  25:.\Generated_Source\PSoC4/cyfitter_cfg.c **** 
  26:.\Generated_Source\PSoC4/cyfitter_cfg.c **** #if defined(__GNUC__) || defined(__ARMCC_VERSION)
  27:.\Generated_Source\PSoC4/cyfitter_cfg.c ****     #define CYPACKED 
  28:.\Generated_Source\PSoC4/cyfitter_cfg.c ****     #define CYPACKED_ATTR __attribute__ ((packed))
  29:.\Generated_Source\PSoC4/cyfitter_cfg.c ****     #define CYALIGNED __attribute__ ((aligned))
  30:.\Generated_Source\PSoC4/cyfitter_cfg.c ****     #define CY_CFG_UNUSED __attribute__ ((unused))
  31:.\Generated_Source\PSoC4/cyfitter_cfg.c ****     #ifndef CY_CFG_SECTION
  32:.\Generated_Source\PSoC4/cyfitter_cfg.c ****         #define CY_CFG_SECTION __attribute__ ((section(".psocinit")))
  33:.\Generated_Source\PSoC4/cyfitter_cfg.c ****     #endif
ARM GAS  C:\Users\NRAY~1.PRI\AppData\Local\Temp\ccm5w3V3.s 			page 2


  34:.\Generated_Source\PSoC4/cyfitter_cfg.c ****     
  35:.\Generated_Source\PSoC4/cyfitter_cfg.c ****     #if defined(__ARMCC_VERSION)
  36:.\Generated_Source\PSoC4/cyfitter_cfg.c ****         #define CY_CFG_MEMORY_BARRIER() __memory_changed()
  37:.\Generated_Source\PSoC4/cyfitter_cfg.c ****     #else
  38:.\Generated_Source\PSoC4/cyfitter_cfg.c ****         #define CY_CFG_MEMORY_BARRIER() __sync_synchronize()
  39:.\Generated_Source\PSoC4/cyfitter_cfg.c ****     #endif
  40:.\Generated_Source\PSoC4/cyfitter_cfg.c ****     
  41:.\Generated_Source\PSoC4/cyfitter_cfg.c **** #elif defined(__ICCARM__)
  42:.\Generated_Source\PSoC4/cyfitter_cfg.c ****     #include <intrinsics.h>
  43:.\Generated_Source\PSoC4/cyfitter_cfg.c **** 
  44:.\Generated_Source\PSoC4/cyfitter_cfg.c ****     #define CYPACKED __packed
  45:.\Generated_Source\PSoC4/cyfitter_cfg.c ****     #define CYPACKED_ATTR 
  46:.\Generated_Source\PSoC4/cyfitter_cfg.c ****     #define CYALIGNED _Pragma("data_alignment=4")
  47:.\Generated_Source\PSoC4/cyfitter_cfg.c ****     #define CY_CFG_UNUSED _Pragma("diag_suppress=Pe177")
  48:.\Generated_Source\PSoC4/cyfitter_cfg.c ****     #define CY_CFG_SECTION _Pragma("location=\".psocinit\"")
  49:.\Generated_Source\PSoC4/cyfitter_cfg.c ****     
  50:.\Generated_Source\PSoC4/cyfitter_cfg.c ****     #define CY_CFG_MEMORY_BARRIER() __DMB()
  51:.\Generated_Source\PSoC4/cyfitter_cfg.c ****     
  52:.\Generated_Source\PSoC4/cyfitter_cfg.c **** #else
  53:.\Generated_Source\PSoC4/cyfitter_cfg.c ****     #error Unsupported toolchain
  54:.\Generated_Source\PSoC4/cyfitter_cfg.c **** #endif
  55:.\Generated_Source\PSoC4/cyfitter_cfg.c **** 
  56:.\Generated_Source\PSoC4/cyfitter_cfg.c **** 
  57:.\Generated_Source\PSoC4/cyfitter_cfg.c **** CY_CFG_UNUSED
  58:.\Generated_Source\PSoC4/cyfitter_cfg.c **** static void CYMEMZERO(void *s, size_t n);
  59:.\Generated_Source\PSoC4/cyfitter_cfg.c **** CY_CFG_UNUSED
  60:.\Generated_Source\PSoC4/cyfitter_cfg.c **** static void CYMEMZERO(void *s, size_t n)
  61:.\Generated_Source\PSoC4/cyfitter_cfg.c **** {
  62:.\Generated_Source\PSoC4/cyfitter_cfg.c **** 	(void)memset(s, 0, n);
  63:.\Generated_Source\PSoC4/cyfitter_cfg.c **** }
  64:.\Generated_Source\PSoC4/cyfitter_cfg.c **** CY_CFG_UNUSED
  65:.\Generated_Source\PSoC4/cyfitter_cfg.c **** static void CYCONFIGCPY(void *dest, const void *src, size_t n);
  66:.\Generated_Source\PSoC4/cyfitter_cfg.c **** CY_CFG_UNUSED
  67:.\Generated_Source\PSoC4/cyfitter_cfg.c **** static void CYCONFIGCPY(void *dest, const void *src, size_t n)
  68:.\Generated_Source\PSoC4/cyfitter_cfg.c **** {
  69:.\Generated_Source\PSoC4/cyfitter_cfg.c **** 	(void)memcpy(dest, src, n);
  70:.\Generated_Source\PSoC4/cyfitter_cfg.c **** }
  71:.\Generated_Source\PSoC4/cyfitter_cfg.c **** CY_CFG_UNUSED
  72:.\Generated_Source\PSoC4/cyfitter_cfg.c **** static void CYCONFIGCPYCODE(void *dest, const void *src, size_t n);
  73:.\Generated_Source\PSoC4/cyfitter_cfg.c **** CY_CFG_UNUSED
  74:.\Generated_Source\PSoC4/cyfitter_cfg.c **** static void CYCONFIGCPYCODE(void *dest, const void *src, size_t n)
  75:.\Generated_Source\PSoC4/cyfitter_cfg.c **** {
  76:.\Generated_Source\PSoC4/cyfitter_cfg.c **** 	(void)memcpy(dest, src, n);
  77:.\Generated_Source\PSoC4/cyfitter_cfg.c **** }
  78:.\Generated_Source\PSoC4/cyfitter_cfg.c **** 
  79:.\Generated_Source\PSoC4/cyfitter_cfg.c **** 
  80:.\Generated_Source\PSoC4/cyfitter_cfg.c **** 
  81:.\Generated_Source\PSoC4/cyfitter_cfg.c **** /* Clock startup error codes                                                   */
  82:.\Generated_Source\PSoC4/cyfitter_cfg.c **** #define CYCLOCKSTART_NO_ERROR    0u
  83:.\Generated_Source\PSoC4/cyfitter_cfg.c **** #define CYCLOCKSTART_XTAL_ERROR  1u
  84:.\Generated_Source\PSoC4/cyfitter_cfg.c **** #define CYCLOCKSTART_32KHZ_ERROR 2u
  85:.\Generated_Source\PSoC4/cyfitter_cfg.c **** #define CYCLOCKSTART_PLL_ERROR   3u
  86:.\Generated_Source\PSoC4/cyfitter_cfg.c **** 
  87:.\Generated_Source\PSoC4/cyfitter_cfg.c **** #ifdef CY_NEED_CYCLOCKSTARTUPERROR
  88:.\Generated_Source\PSoC4/cyfitter_cfg.c **** /*******************************************************************************
  89:.\Generated_Source\PSoC4/cyfitter_cfg.c **** * Function Name: CyClockStartupError
  90:.\Generated_Source\PSoC4/cyfitter_cfg.c **** ********************************************************************************
ARM GAS  C:\Users\NRAY~1.PRI\AppData\Local\Temp\ccm5w3V3.s 			page 3


  91:.\Generated_Source\PSoC4/cyfitter_cfg.c **** * Summary:
  92:.\Generated_Source\PSoC4/cyfitter_cfg.c **** *  If an error is encountered during clock configuration (crystal startup error,
  93:.\Generated_Source\PSoC4/cyfitter_cfg.c **** *  PLL lock error, etc.), the system will end up here.  Unless reimplemented by
  94:.\Generated_Source\PSoC4/cyfitter_cfg.c **** *  the customer, this function will stop in an infinite loop.
  95:.\Generated_Source\PSoC4/cyfitter_cfg.c **** *
  96:.\Generated_Source\PSoC4/cyfitter_cfg.c **** * Parameters:
  97:.\Generated_Source\PSoC4/cyfitter_cfg.c **** *   void
  98:.\Generated_Source\PSoC4/cyfitter_cfg.c **** *
  99:.\Generated_Source\PSoC4/cyfitter_cfg.c **** * Return:
 100:.\Generated_Source\PSoC4/cyfitter_cfg.c **** *   void
 101:.\Generated_Source\PSoC4/cyfitter_cfg.c **** *
 102:.\Generated_Source\PSoC4/cyfitter_cfg.c **** *******************************************************************************/
 103:.\Generated_Source\PSoC4/cyfitter_cfg.c **** CY_CFG_UNUSED
 104:.\Generated_Source\PSoC4/cyfitter_cfg.c **** static void CyClockStartupError(uint8 errorCode);
 105:.\Generated_Source\PSoC4/cyfitter_cfg.c **** CY_CFG_UNUSED
 106:.\Generated_Source\PSoC4/cyfitter_cfg.c **** static void CyClockStartupError(uint8 errorCode)
 107:.\Generated_Source\PSoC4/cyfitter_cfg.c **** {
 108:.\Generated_Source\PSoC4/cyfitter_cfg.c ****     /* To remove the compiler warning if errorCode not used.                */
 109:.\Generated_Source\PSoC4/cyfitter_cfg.c ****     errorCode = errorCode;
 110:.\Generated_Source\PSoC4/cyfitter_cfg.c **** 
 111:.\Generated_Source\PSoC4/cyfitter_cfg.c ****     /* `#START CyClockStartupError` */
 112:.\Generated_Source\PSoC4/cyfitter_cfg.c **** 
 113:.\Generated_Source\PSoC4/cyfitter_cfg.c ****     /* If we have a clock startup error (bad MHz crystal, PLL lock, etc.),  */
 114:.\Generated_Source\PSoC4/cyfitter_cfg.c ****     /* we will end up here to allow the customer to implement something to  */
 115:.\Generated_Source\PSoC4/cyfitter_cfg.c ****     /* deal with the clock condition.                                       */
 116:.\Generated_Source\PSoC4/cyfitter_cfg.c **** 
 117:.\Generated_Source\PSoC4/cyfitter_cfg.c ****     /* `#END` */
 118:.\Generated_Source\PSoC4/cyfitter_cfg.c **** 
 119:.\Generated_Source\PSoC4/cyfitter_cfg.c ****     /* If nothing else, stop here since the clocks have not started         */
 120:.\Generated_Source\PSoC4/cyfitter_cfg.c ****     /* correctly.                                                           */
 121:.\Generated_Source\PSoC4/cyfitter_cfg.c ****     while(1) {}
 122:.\Generated_Source\PSoC4/cyfitter_cfg.c **** }
 123:.\Generated_Source\PSoC4/cyfitter_cfg.c **** #endif
 124:.\Generated_Source\PSoC4/cyfitter_cfg.c **** 
 125:.\Generated_Source\PSoC4/cyfitter_cfg.c **** #define CY_CFG_BASE_ADDR_COUNT 10u
 126:.\Generated_Source\PSoC4/cyfitter_cfg.c **** CYPACKED typedef struct
 127:.\Generated_Source\PSoC4/cyfitter_cfg.c **** {
 128:.\Generated_Source\PSoC4/cyfitter_cfg.c **** 	uint8 offset;
 129:.\Generated_Source\PSoC4/cyfitter_cfg.c **** 	uint8 value;
 130:.\Generated_Source\PSoC4/cyfitter_cfg.c **** } CYPACKED_ATTR cy_cfg_addrvalue_t;
 131:.\Generated_Source\PSoC4/cyfitter_cfg.c **** 
 132:.\Generated_Source\PSoC4/cyfitter_cfg.c **** 
 133:.\Generated_Source\PSoC4/cyfitter_cfg.c **** 
 134:.\Generated_Source\PSoC4/cyfitter_cfg.c **** /*******************************************************************************
 135:.\Generated_Source\PSoC4/cyfitter_cfg.c **** * Function Name: cfg_write_bytes32
 136:.\Generated_Source\PSoC4/cyfitter_cfg.c **** ********************************************************************************
 137:.\Generated_Source\PSoC4/cyfitter_cfg.c **** * Summary:
 138:.\Generated_Source\PSoC4/cyfitter_cfg.c **** *  This function is used for setting up the chip configuration areas that
 139:.\Generated_Source\PSoC4/cyfitter_cfg.c **** *  contain relatively sparse data.
 140:.\Generated_Source\PSoC4/cyfitter_cfg.c **** *
 141:.\Generated_Source\PSoC4/cyfitter_cfg.c **** * Parameters:
 142:.\Generated_Source\PSoC4/cyfitter_cfg.c **** *   void
 143:.\Generated_Source\PSoC4/cyfitter_cfg.c **** *
 144:.\Generated_Source\PSoC4/cyfitter_cfg.c **** * Return:
 145:.\Generated_Source\PSoC4/cyfitter_cfg.c **** *   void
 146:.\Generated_Source\PSoC4/cyfitter_cfg.c **** *
 147:.\Generated_Source\PSoC4/cyfitter_cfg.c **** *******************************************************************************/
ARM GAS  C:\Users\NRAY~1.PRI\AppData\Local\Temp\ccm5w3V3.s 			page 4


 148:.\Generated_Source\PSoC4/cyfitter_cfg.c **** static void cfg_write_bytes32(const uint32 addr_table[], const cy_cfg_addrvalue_t data_table[]);
 149:.\Generated_Source\PSoC4/cyfitter_cfg.c **** static void cfg_write_bytes32(const uint32 addr_table[], const cy_cfg_addrvalue_t data_table[])
 150:.\Generated_Source\PSoC4/cyfitter_cfg.c **** {
  25              		.loc 1 150 0
  26              		.cfi_startproc
  27              	.LVL0:
  28 0000 F0B5     		push	{r4, r5, r6, r7, lr}
  29              		.cfi_def_cfa_offset 20
  30              		.cfi_offset 4, -20
  31              		.cfi_offset 5, -16
  32              		.cfi_offset 6, -12
  33              		.cfi_offset 7, -8
  34              		.cfi_offset 14, -4
  35              	.LVL1:
 151:.\Generated_Source\PSoC4/cyfitter_cfg.c **** 	/* For 32-bit little-endian architectures */
 152:.\Generated_Source\PSoC4/cyfitter_cfg.c **** 	uint32 i, j = 0u;
  36              		.loc 1 152 0
  37 0002 0025     		mov	r5, #0
 153:.\Generated_Source\PSoC4/cyfitter_cfg.c **** 	for (i = 0u; i < CY_CFG_BASE_ADDR_COUNT; i++)
  38              		.loc 1 153 0
  39 0004 0027     		mov	r7, #0
  40 0006 11E0     		b	.L2
  41              	.LVL2:
  42              	.L5:
  43              	.LBB2:
 154:.\Generated_Source\PSoC4/cyfitter_cfg.c **** 	{
 155:.\Generated_Source\PSoC4/cyfitter_cfg.c **** 		uint32 baseAddr = addr_table[i];
  44              		.loc 1 155 0
  45 0008 BB00     		lsl	r3, r7, #2
  46 000a C658     		ldr	r6, [r0, r3]
  47              	.LVL3:
 156:.\Generated_Source\PSoC4/cyfitter_cfg.c **** 		uint8 count = (uint8)baseAddr;
  48              		.loc 1 156 0
  49 000c F3B2     		uxtb	r3, r6
  50              	.LVL4:
 157:.\Generated_Source\PSoC4/cyfitter_cfg.c **** 		baseAddr &= 0xFFFFFF00u;
  51              		.loc 1 157 0
  52 000e FF22     		mov	r2, #255
  53 0010 9643     		bic	r6, r2
  54              	.LVL5:
 158:.\Generated_Source\PSoC4/cyfitter_cfg.c **** 		while (count != 0u)
  55              		.loc 1 158 0
  56 0012 08E0     		b	.L3
  57              	.L4:
 159:.\Generated_Source\PSoC4/cyfitter_cfg.c **** 		{
 160:.\Generated_Source\PSoC4/cyfitter_cfg.c **** 			CY_SET_XTND_REG8((void CYFAR *)(baseAddr + data_table[j].offset), data_table[j].value);
  58              		.loc 1 160 0
  59 0014 6A00     		lsl	r2, r5, #1
  60 0016 8A18     		add	r2, r1, r2
  61 0018 1478     		ldrb	r4, [r2]
  62 001a A419     		add	r4, r4, r6
  63 001c 5278     		ldrb	r2, [r2, #1]
  64 001e 2270     		strb	r2, [r4]
 161:.\Generated_Source\PSoC4/cyfitter_cfg.c **** 			j++;
  65              		.loc 1 161 0
  66 0020 0135     		add	r5, r5, #1
  67              	.LVL6:
ARM GAS  C:\Users\NRAY~1.PRI\AppData\Local\Temp\ccm5w3V3.s 			page 5


 162:.\Generated_Source\PSoC4/cyfitter_cfg.c **** 			count--;
  68              		.loc 1 162 0
  69 0022 013B     		sub	r3, r3, #1
  70              	.LVL7:
  71 0024 DBB2     		uxtb	r3, r3
  72              	.LVL8:
  73              	.L3:
 158:.\Generated_Source\PSoC4/cyfitter_cfg.c **** 		{
  74              		.loc 1 158 0
  75 0026 002B     		cmp	r3, #0
  76 0028 F4D1     		bne	.L4
  77              	.LBE2:
 153:.\Generated_Source\PSoC4/cyfitter_cfg.c **** 	{
  78              		.loc 1 153 0 discriminator 2
  79 002a 0137     		add	r7, r7, #1
  80              	.LVL9:
  81              	.L2:
 153:.\Generated_Source\PSoC4/cyfitter_cfg.c **** 	{
  82              		.loc 1 153 0 is_stmt 0 discriminator 1
  83 002c 092F     		cmp	r7, #9
  84 002e EBD9     		bls	.L5
 163:.\Generated_Source\PSoC4/cyfitter_cfg.c **** 		}
 164:.\Generated_Source\PSoC4/cyfitter_cfg.c **** 	}
 165:.\Generated_Source\PSoC4/cyfitter_cfg.c **** }
  85              		.loc 1 165 0 is_stmt 1
  86              		@ sp needed
  87              	.LVL10:
  88              	.LVL11:
  89 0030 F0BD     		pop	{r4, r5, r6, r7, pc}
  90              		.cfi_endproc
  91              	.LFE4:
  92              		.size	cfg_write_bytes32, .-cfg_write_bytes32
  93 0032 C046     		.section	.text.CYMEMZERO,"ax",%progbits
  94              		.align	2
  95              		.code	16
  96              		.thumb_func
  97              		.type	CYMEMZERO, %function
  98              	CYMEMZERO:
  99              	.LFB1:
  61:.\Generated_Source\PSoC4/cyfitter_cfg.c **** 	(void)memset(s, 0, n);
 100              		.loc 1 61 0
 101              		.cfi_startproc
 102              	.LVL12:
 103 0000 08B5     		push	{r3, lr}
 104              		.cfi_def_cfa_offset 8
 105              		.cfi_offset 3, -8
 106              		.cfi_offset 14, -4
 107 0002 0A1C     		mov	r2, r1
  62:.\Generated_Source\PSoC4/cyfitter_cfg.c **** }
 108              		.loc 1 62 0
 109 0004 0021     		mov	r1, #0
 110              	.LVL13:
 111 0006 FFF7FEFF 		bl	memset
 112              	.LVL14:
  63:.\Generated_Source\PSoC4/cyfitter_cfg.c **** CY_CFG_UNUSED
 113              		.loc 1 63 0
 114              		@ sp needed
ARM GAS  C:\Users\NRAY~1.PRI\AppData\Local\Temp\ccm5w3V3.s 			page 6


 115 000a 08BD     		pop	{r3, pc}
 116              		.cfi_endproc
 117              	.LFE1:
 118              		.size	CYMEMZERO, .-CYMEMZERO
 119              		.section	.psocinit,"ax",%progbits
 120              		.align	2
 121              		.code	16
 122              		.thumb_func
 123              		.type	ClockSetup, %function
 124              	ClockSetup:
 125              	.LFB5:
 166:.\Generated_Source\PSoC4/cyfitter_cfg.c **** 
 167:.\Generated_Source\PSoC4/cyfitter_cfg.c **** 
 168:.\Generated_Source\PSoC4/cyfitter_cfg.c **** /*******************************************************************************
 169:.\Generated_Source\PSoC4/cyfitter_cfg.c **** * Function Name: ClockSetup
 170:.\Generated_Source\PSoC4/cyfitter_cfg.c **** ********************************************************************************
 171:.\Generated_Source\PSoC4/cyfitter_cfg.c **** *
 172:.\Generated_Source\PSoC4/cyfitter_cfg.c **** * Summary:
 173:.\Generated_Source\PSoC4/cyfitter_cfg.c **** *   Performs the initialization of all of the clocks in the device based on the
 174:.\Generated_Source\PSoC4/cyfitter_cfg.c **** *   settings in the Clock tab of the DWR.  This includes enabling the requested
 175:.\Generated_Source\PSoC4/cyfitter_cfg.c **** *   clocks and setting the necessary dividers to produce the desired frequency. 
 176:.\Generated_Source\PSoC4/cyfitter_cfg.c **** *
 177:.\Generated_Source\PSoC4/cyfitter_cfg.c **** * Parameters:
 178:.\Generated_Source\PSoC4/cyfitter_cfg.c **** *   void
 179:.\Generated_Source\PSoC4/cyfitter_cfg.c **** *
 180:.\Generated_Source\PSoC4/cyfitter_cfg.c **** * Return:
 181:.\Generated_Source\PSoC4/cyfitter_cfg.c **** *   void
 182:.\Generated_Source\PSoC4/cyfitter_cfg.c **** *
 183:.\Generated_Source\PSoC4/cyfitter_cfg.c **** *******************************************************************************/
 184:.\Generated_Source\PSoC4/cyfitter_cfg.c **** static void ClockSetup(void);
 185:.\Generated_Source\PSoC4/cyfitter_cfg.c **** CY_CFG_SECTION
 186:.\Generated_Source\PSoC4/cyfitter_cfg.c **** static void ClockSetup(void)
 187:.\Generated_Source\PSoC4/cyfitter_cfg.c **** {
 126              		.loc 1 187 0
 127              		.cfi_startproc
 128 0000 08B5     		push	{r3, lr}
 129              		.cfi_def_cfa_offset 8
 130              		.cfi_offset 3, -8
 131              		.cfi_offset 14, -4
 188:.\Generated_Source\PSoC4/cyfitter_cfg.c **** 
 189:.\Generated_Source\PSoC4/cyfitter_cfg.c **** 	/* Set Flash Cycles based on max possible frequency in case a glitch occurs during ClockSetup(). *
 190:.\Generated_Source\PSoC4/cyfitter_cfg.c **** 	CY_SET_REG32((void CYXDATA *)(CYREG_CPUSS_FLASH_CTL), (0x0012u));
 132              		.loc 1 190 0
 133 0002 1222     		mov	r2, #18
 134 0004 2A4B     		ldr	r3, .L9
 135 0006 1A60     		str	r2, [r3]
 191:.\Generated_Source\PSoC4/cyfitter_cfg.c **** 
 192:.\Generated_Source\PSoC4/cyfitter_cfg.c **** 	/* Start the WCO */
 193:.\Generated_Source\PSoC4/cyfitter_cfg.c **** 	CySysClkWcoStart();
 136              		.loc 1 193 0
 137 0008 FFF7FEFF 		bl	CySysClkWcoStart
 138              	.LVL15:
 194:.\Generated_Source\PSoC4/cyfitter_cfg.c **** 	CyDelayCycles(12000000u); /* WCO may take up to 500ms to start */
 139              		.loc 1 194 0
 140 000c 2948     		ldr	r0, .L9+4
 141 000e FFF7FEFF 		bl	CyDelayCycles
 142              	.LVL16:
ARM GAS  C:\Users\NRAY~1.PRI\AppData\Local\Temp\ccm5w3V3.s 			page 7


 195:.\Generated_Source\PSoC4/cyfitter_cfg.c **** 
 196:.\Generated_Source\PSoC4/cyfitter_cfg.c **** 	/* Setup and trim IMO based on desired frequency. */
 197:.\Generated_Source\PSoC4/cyfitter_cfg.c **** 	CySysClkWriteImoFreq(48u);
 143              		.loc 1 197 0
 144 0012 3020     		mov	r0, #48
 145 0014 FFF7FEFF 		bl	CySysClkWriteImoFreq
 146              	.LVL17:
 198:.\Generated_Source\PSoC4/cyfitter_cfg.c **** 	/* CYDEV_WDT_CONFIG Starting address: CYDEV_WDT_CONFIG */
 199:.\Generated_Source\PSoC4/cyfitter_cfg.c **** 	CY_SET_XTND_REG32((void CYFAR *)(CYREG_WDT_CONFIG), 0x40000000u);
 147              		.loc 1 199 0
 148 0018 274A     		ldr	r2, .L9+8
 149 001a 8023     		mov	r3, #128
 150 001c DB05     		lsl	r3, r3, #23
 151 001e 1360     		str	r3, [r2]
 200:.\Generated_Source\PSoC4/cyfitter_cfg.c **** 
 201:.\Generated_Source\PSoC4/cyfitter_cfg.c **** 
 202:.\Generated_Source\PSoC4/cyfitter_cfg.c **** 	/* Setup phase aligned clocks */
 203:.\Generated_Source\PSoC4/cyfitter_cfg.c **** 	CY_SET_REG32((void *)CYREG_PERI_DIV_16_CTL2, 0x00002F00u);
 152              		.loc 1 203 0
 153 0020 BC21     		mov	r1, #188
 154 0022 8901     		lsl	r1, r1, #6
 155 0024 254B     		ldr	r3, .L9+12
 156 0026 1960     		str	r1, [r3]
 204:.\Generated_Source\PSoC4/cyfitter_cfg.c **** 	CY_SET_REG32((void *)CYREG_PERI_DIV_CMD, 0x8000FF42u);
 157              		.loc 1 204 0
 158 0028 254B     		ldr	r3, .L9+16
 159 002a 2649     		ldr	r1, .L9+20
 160 002c 1960     		str	r1, [r3]
 205:.\Generated_Source\PSoC4/cyfitter_cfg.c **** 	CY_SET_REG32((void *)CYREG_PERI_DIV_16_CTL4, 0x0001A000u);
 161              		.loc 1 205 0
 162 002e D020     		mov	r0, #208
 163 0030 4002     		lsl	r0, r0, #9
 164 0032 2549     		ldr	r1, .L9+24
 165 0034 0860     		str	r0, [r1]
 206:.\Generated_Source\PSoC4/cyfitter_cfg.c **** 	CY_SET_REG32((void *)CYREG_PERI_DIV_CMD, 0x8000FF44u);
 166              		.loc 1 206 0
 167 0036 2549     		ldr	r1, .L9+28
 168 0038 1960     		str	r1, [r3]
 207:.\Generated_Source\PSoC4/cyfitter_cfg.c **** 	CY_SET_REG32((void *)CYREG_PERI_DIV_16_CTL1, 0x00001D00u);
 169              		.loc 1 207 0
 170 003a E820     		mov	r0, #232
 171 003c 4001     		lsl	r0, r0, #5
 172 003e 2449     		ldr	r1, .L9+32
 173 0040 0860     		str	r0, [r1]
 208:.\Generated_Source\PSoC4/cyfitter_cfg.c **** 	CY_SET_REG32((void *)CYREG_PERI_DIV_CMD, 0x8000FF41u);
 174              		.loc 1 208 0
 175 0042 2449     		ldr	r1, .L9+36
 176 0044 1960     		str	r1, [r3]
 209:.\Generated_Source\PSoC4/cyfitter_cfg.c **** 	CY_SET_REG32((void *)CYREG_PERI_DIV_16_CTL0, 0x00000200u);
 177              		.loc 1 209 0
 178 0046 8020     		mov	r0, #128
 179 0048 8000     		lsl	r0, r0, #2
 180 004a 2349     		ldr	r1, .L9+40
 181 004c 0860     		str	r0, [r1]
 210:.\Generated_Source\PSoC4/cyfitter_cfg.c **** 	CY_SET_REG32((void *)CYREG_PERI_DIV_CMD, 0x8000FF40u);
 182              		.loc 1 210 0
 183 004e 2349     		ldr	r1, .L9+44
ARM GAS  C:\Users\NRAY~1.PRI\AppData\Local\Temp\ccm5w3V3.s 			page 8


 184 0050 1960     		str	r1, [r3]
 211:.\Generated_Source\PSoC4/cyfitter_cfg.c **** 	CY_SET_REG32((void *)CYREG_PERI_DIV_16_CTL3, 0x0000CF00u);
 185              		.loc 1 211 0
 186 0052 CF20     		mov	r0, #207
 187 0054 0002     		lsl	r0, r0, #8
 188 0056 2249     		ldr	r1, .L9+48
 189 0058 0860     		str	r0, [r1]
 212:.\Generated_Source\PSoC4/cyfitter_cfg.c **** 	CY_SET_REG32((void *)CYREG_PERI_DIV_CMD, 0x8000FF43u);
 190              		.loc 1 212 0
 191 005a 2249     		ldr	r1, .L9+52
 192 005c 1960     		str	r1, [r3]
 213:.\Generated_Source\PSoC4/cyfitter_cfg.c **** 
 214:.\Generated_Source\PSoC4/cyfitter_cfg.c **** 	/* CYDEV_CLK_IMO_CONFIG Starting address: CYDEV_CLK_IMO_CONFIG */
 215:.\Generated_Source\PSoC4/cyfitter_cfg.c **** 	CY_SET_XTND_REG32((void CYFAR *)(CYREG_CLK_IMO_CONFIG), 0x82000000u);
 193              		.loc 1 215 0
 194 005e 8221     		mov	r1, #130
 195 0060 0906     		lsl	r1, r1, #24
 196 0062 214B     		ldr	r3, .L9+56
 197 0064 1960     		str	r1, [r3]
 216:.\Generated_Source\PSoC4/cyfitter_cfg.c **** 
 217:.\Generated_Source\PSoC4/cyfitter_cfg.c **** 	/* CYDEV_CLK_SELECT Starting address: CYDEV_CLK_SELECT */
 218:.\Generated_Source\PSoC4/cyfitter_cfg.c **** 	CY_SET_XTND_REG32((void CYFAR *)(CYREG_CLK_SELECT), 0x00040000u);
 198              		.loc 1 218 0
 199 0066 8021     		mov	r1, #128
 200 0068 C902     		lsl	r1, r1, #11
 201 006a 204B     		ldr	r3, .L9+60
 202 006c 1960     		str	r1, [r3]
 219:.\Generated_Source\PSoC4/cyfitter_cfg.c **** 
 220:.\Generated_Source\PSoC4/cyfitter_cfg.c **** 	/* CYDEV_PERI_PCLK_CTL10 Starting address: CYDEV_PERI_PCLK_CTL10 */
 221:.\Generated_Source\PSoC4/cyfitter_cfg.c **** 	CY_SET_XTND_REG32((void CYFAR *)(CYREG_PERI_PCLK_CTL10), 0x00000042u);
 203              		.loc 1 221 0
 204 006e 4221     		mov	r1, #66
 205 0070 1F4B     		ldr	r3, .L9+64
 206 0072 1960     		str	r1, [r3]
 222:.\Generated_Source\PSoC4/cyfitter_cfg.c **** 
 223:.\Generated_Source\PSoC4/cyfitter_cfg.c **** 	/* CYDEV_PERI_PCLK_CTL5 Starting address: CYDEV_PERI_PCLK_CTL5 */
 224:.\Generated_Source\PSoC4/cyfitter_cfg.c **** 	CY_SET_XTND_REG32((void CYFAR *)(CYREG_PERI_PCLK_CTL5), 0x00000044u);
 207              		.loc 1 224 0
 208 0074 0231     		add	r1, r1, #2
 209 0076 1F4B     		ldr	r3, .L9+68
 210 0078 1960     		str	r1, [r3]
 225:.\Generated_Source\PSoC4/cyfitter_cfg.c **** 
 226:.\Generated_Source\PSoC4/cyfitter_cfg.c **** 	/* CYDEV_PERI_PCLK_CTL4 Starting address: CYDEV_PERI_PCLK_CTL4 */
 227:.\Generated_Source\PSoC4/cyfitter_cfg.c **** 	CY_SET_XTND_REG32((void CYFAR *)(CYREG_PERI_PCLK_CTL4), 0x00000041u);
 211              		.loc 1 227 0
 212 007a 0339     		sub	r1, r1, #3
 213 007c 1E4B     		ldr	r3, .L9+72
 214 007e 1960     		str	r1, [r3]
 228:.\Generated_Source\PSoC4/cyfitter_cfg.c **** 
 229:.\Generated_Source\PSoC4/cyfitter_cfg.c **** 	/* CYDEV_PERI_PCLK_CTL3 Starting address: CYDEV_PERI_PCLK_CTL3 */
 230:.\Generated_Source\PSoC4/cyfitter_cfg.c **** 	CY_SET_XTND_REG32((void CYFAR *)(CYREG_PERI_PCLK_CTL3), 0x00000040u);
 215              		.loc 1 230 0
 216 0080 0139     		sub	r1, r1, #1
 217 0082 1E4B     		ldr	r3, .L9+76
 218 0084 1960     		str	r1, [r3]
 231:.\Generated_Source\PSoC4/cyfitter_cfg.c **** 
 232:.\Generated_Source\PSoC4/cyfitter_cfg.c **** 	/* CYDEV_PERI_PCLK_CTL2 Starting address: CYDEV_PERI_PCLK_CTL2 */
ARM GAS  C:\Users\NRAY~1.PRI\AppData\Local\Temp\ccm5w3V3.s 			page 9


 233:.\Generated_Source\PSoC4/cyfitter_cfg.c **** 	CY_SET_XTND_REG32((void CYFAR *)(CYREG_PERI_PCLK_CTL2), 0x00000043u);
 219              		.loc 1 233 0
 220 0086 0331     		add	r1, r1, #3
 221 0088 1D4B     		ldr	r3, .L9+80
 222 008a 1960     		str	r1, [r3]
 234:.\Generated_Source\PSoC4/cyfitter_cfg.c **** 
 235:.\Generated_Source\PSoC4/cyfitter_cfg.c **** 	CY_SET_XTND_REG32((void CYFAR *)(CYREG_WDT_MATCH), 0x0020FFFFu);
 223              		.loc 1 235 0
 224 008c 1D49     		ldr	r1, .L9+84
 225 008e 1E4B     		ldr	r3, .L9+88
 226 0090 1960     		str	r1, [r3]
 236:.\Generated_Source\PSoC4/cyfitter_cfg.c **** 	CY_SET_XTND_REG32((void CYFAR *)(CYREG_WDT_CONFIG), 0x40000505u);
 227              		.loc 1 236 0
 228 0092 1E4B     		ldr	r3, .L9+92
 229 0094 1360     		str	r3, [r2]
 237:.\Generated_Source\PSoC4/cyfitter_cfg.c **** 	CY_SET_XTND_REG32((void CYFAR *)(CYREG_WDT_CONTROL), 0x00000808u);
 230              		.loc 1 237 0
 231 0096 1E4A     		ldr	r2, .L9+96
 232 0098 1E4B     		ldr	r3, .L9+100
 233 009a 1A60     		str	r2, [r3]
 234              	.L8:
 238:.\Generated_Source\PSoC4/cyfitter_cfg.c **** 	while ((CY_GET_XTND_REG32((void CYFAR *)(CYREG_WDT_CONTROL)) & 0x00000808u) != 0u) { }
 235              		.loc 1 238 0 discriminator 1
 236 009c 1D4B     		ldr	r3, .L9+100
 237 009e 1A68     		ldr	r2, [r3]
 238 00a0 1B4B     		ldr	r3, .L9+96
 239 00a2 1A42     		tst	r2, r3
 240 00a4 FAD1     		bne	.L8
 239:.\Generated_Source\PSoC4/cyfitter_cfg.c **** 	CY_SET_XTND_REG32((void CYFAR *)(CYREG_WDT_CONTROL), 0x00000101u);
 241              		.loc 1 239 0
 242 00a6 0222     		mov	r2, #2
 243 00a8 FF32     		add	r2, r2, #255
 244 00aa 1A4B     		ldr	r3, .L9+100
 245 00ac 1A60     		str	r2, [r3]
 240:.\Generated_Source\PSoC4/cyfitter_cfg.c **** }
 246              		.loc 1 240 0
 247              		@ sp needed
 248 00ae 08BD     		pop	{r3, pc}
 249              	.L10:
 250              		.align	2
 251              	.L9:
 252 00b0 30001040 		.word	1074790448
 253 00b4 001BB700 		.word	12000000
 254 00b8 0C020B40 		.word	1074463244
 255 00bc 08030140 		.word	1073808136
 256 00c0 00000140 		.word	1073807360
 257 00c4 42FF0080 		.word	-2147418302
 258 00c8 10030140 		.word	1073808144
 259 00cc 44FF0080 		.word	-2147418300
 260 00d0 04030140 		.word	1073808132
 261 00d4 41FF0080 		.word	-2147418303
 262 00d8 00030140 		.word	1073808128
 263 00dc 40FF0080 		.word	-2147418304
 264 00e0 0C030140 		.word	1073808140
 265 00e4 43FF0080 		.word	-2147418301
 266 00e8 08010B40 		.word	1074462984
 267 00ec 00010B40 		.word	1074462976
ARM GAS  C:\Users\NRAY~1.PRI\AppData\Local\Temp\ccm5w3V3.s 			page 10


 268 00f0 28010140 		.word	1073807656
 269 00f4 14010140 		.word	1073807636
 270 00f8 10010140 		.word	1073807632
 271 00fc 0C010140 		.word	1073807628
 272 0100 08010140 		.word	1073807624
 273 0104 FFFF2000 		.word	2162687
 274 0108 08020B40 		.word	1074463240
 275 010c 05050040 		.word	1073743109
 276 0110 08080000 		.word	2056
 277 0114 10020B40 		.word	1074463248
 278              		.cfi_endproc
 279              	.LFE5:
 280              		.size	ClockSetup, .-ClockSetup
 281              		.section	.text.SetAnalogRoutingPumps,"ax",%progbits
 282              		.align	2
 283              		.global	SetAnalogRoutingPumps
 284              		.code	16
 285              		.thumb_func
 286              		.type	SetAnalogRoutingPumps, %function
 287              	SetAnalogRoutingPumps:
 288              	.LFB7:
 241:.\Generated_Source\PSoC4/cyfitter_cfg.c **** 
 242:.\Generated_Source\PSoC4/cyfitter_cfg.c **** 
 243:.\Generated_Source\PSoC4/cyfitter_cfg.c **** /* Analog API Functions */
 244:.\Generated_Source\PSoC4/cyfitter_cfg.c **** 
 245:.\Generated_Source\PSoC4/cyfitter_cfg.c **** 
 246:.\Generated_Source\PSoC4/cyfitter_cfg.c **** /*******************************************************************************
 247:.\Generated_Source\PSoC4/cyfitter_cfg.c **** * Function Name: AnalogSetDefault
 248:.\Generated_Source\PSoC4/cyfitter_cfg.c **** ********************************************************************************
 249:.\Generated_Source\PSoC4/cyfitter_cfg.c **** *
 250:.\Generated_Source\PSoC4/cyfitter_cfg.c **** * Summary:
 251:.\Generated_Source\PSoC4/cyfitter_cfg.c **** *  Sets up the analog portions of the chip to default values based on chip
 252:.\Generated_Source\PSoC4/cyfitter_cfg.c **** *  configuration options from the project.
 253:.\Generated_Source\PSoC4/cyfitter_cfg.c **** *
 254:.\Generated_Source\PSoC4/cyfitter_cfg.c **** * Parameters:
 255:.\Generated_Source\PSoC4/cyfitter_cfg.c **** *  void
 256:.\Generated_Source\PSoC4/cyfitter_cfg.c **** *
 257:.\Generated_Source\PSoC4/cyfitter_cfg.c **** * Return:
 258:.\Generated_Source\PSoC4/cyfitter_cfg.c **** *  void
 259:.\Generated_Source\PSoC4/cyfitter_cfg.c **** *
 260:.\Generated_Source\PSoC4/cyfitter_cfg.c **** *******************************************************************************/
 261:.\Generated_Source\PSoC4/cyfitter_cfg.c **** static void AnalogSetDefault(void);
 262:.\Generated_Source\PSoC4/cyfitter_cfg.c **** static void AnalogSetDefault(void)
 263:.\Generated_Source\PSoC4/cyfitter_cfg.c **** {
 264:.\Generated_Source\PSoC4/cyfitter_cfg.c **** 	CY_SET_XTND_REG32((void CYFAR *)CYREG_CTBM0_DFT_CTRL, 0x00000003u);
 265:.\Generated_Source\PSoC4/cyfitter_cfg.c **** 	CY_SET_XTND_REG32((void CYFAR *)CYREG_CTBM1_DFT_CTRL, 0x00000003u);
 266:.\Generated_Source\PSoC4/cyfitter_cfg.c **** 	CY_SET_XTND_REG32((void CYFAR *)CYREG_SAR_CTRL, 0x80000000u);
 267:.\Generated_Source\PSoC4/cyfitter_cfg.c **** 	CY_SET_XTND_REG32((void CYFAR *)CYREG_SAR_MUX_SWITCH0, 0x00030004u);
 268:.\Generated_Source\PSoC4/cyfitter_cfg.c **** 	CY_SET_XTND_REG32((void CYFAR *)CYREG_SAR_MUX_SWITCH_HW_CTRL, 0x00030004u);
 269:.\Generated_Source\PSoC4/cyfitter_cfg.c **** 	CY_SET_XTND_REG32((void CYFAR *)CYREG_PASS_DSAB_DSAB_CTRL, 0x00000000u);
 270:.\Generated_Source\PSoC4/cyfitter_cfg.c **** 	SetAnalogRoutingPumps(1);
 271:.\Generated_Source\PSoC4/cyfitter_cfg.c **** }
 272:.\Generated_Source\PSoC4/cyfitter_cfg.c **** 
 273:.\Generated_Source\PSoC4/cyfitter_cfg.c **** 
 274:.\Generated_Source\PSoC4/cyfitter_cfg.c **** /*******************************************************************************
 275:.\Generated_Source\PSoC4/cyfitter_cfg.c **** * Function Name: SetAnalogRoutingPumps
 276:.\Generated_Source\PSoC4/cyfitter_cfg.c **** ********************************************************************************
ARM GAS  C:\Users\NRAY~1.PRI\AppData\Local\Temp\ccm5w3V3.s 			page 11


 277:.\Generated_Source\PSoC4/cyfitter_cfg.c **** *
 278:.\Generated_Source\PSoC4/cyfitter_cfg.c **** * Summary:
 279:.\Generated_Source\PSoC4/cyfitter_cfg.c **** * Enables or disables the analog pumps feeding analog routing switches.
 280:.\Generated_Source\PSoC4/cyfitter_cfg.c **** * Intended to be called at startup, based on the Vdda system configuration;
 281:.\Generated_Source\PSoC4/cyfitter_cfg.c **** * may be called during operation when the user informs us that the Vdda voltage crossed the pump th
 282:.\Generated_Source\PSoC4/cyfitter_cfg.c **** *
 283:.\Generated_Source\PSoC4/cyfitter_cfg.c **** * Parameters:
 284:.\Generated_Source\PSoC4/cyfitter_cfg.c **** *  enabled - 1 to enable the pumps, 0 to disable the pumps
 285:.\Generated_Source\PSoC4/cyfitter_cfg.c **** *
 286:.\Generated_Source\PSoC4/cyfitter_cfg.c **** * Return:
 287:.\Generated_Source\PSoC4/cyfitter_cfg.c **** *  void
 288:.\Generated_Source\PSoC4/cyfitter_cfg.c **** *
 289:.\Generated_Source\PSoC4/cyfitter_cfg.c **** *******************************************************************************/
 290:.\Generated_Source\PSoC4/cyfitter_cfg.c **** void SetAnalogRoutingPumps(uint8 enabled)
 291:.\Generated_Source\PSoC4/cyfitter_cfg.c **** {
 289              		.loc 1 291 0
 290              		.cfi_startproc
 291              	.LVL18:
 292:.\Generated_Source\PSoC4/cyfitter_cfg.c **** 	uint32 regValue = CY_GET_XTND_REG32((void *)(CYREG_SAR_PUMP_CTRL));
 292              		.loc 1 292 0
 293 0000 064B     		ldr	r3, .L14
 294 0002 1B68     		ldr	r3, [r3]
 295              	.LVL19:
 293:.\Generated_Source\PSoC4/cyfitter_cfg.c **** 	if (enabled != 0u)
 296              		.loc 1 293 0
 297 0004 0028     		cmp	r0, #0
 298 0006 03D0     		beq	.L12
 294:.\Generated_Source\PSoC4/cyfitter_cfg.c **** 	{
 295:.\Generated_Source\PSoC4/cyfitter_cfg.c **** 		regValue |= 0x80000000u;
 299              		.loc 1 295 0
 300 0008 8022     		mov	r2, #128
 301 000a 1206     		lsl	r2, r2, #24
 302 000c 1343     		orr	r3, r2
 303              	.LVL20:
 304 000e 01E0     		b	.L13
 305              	.L12:
 296:.\Generated_Source\PSoC4/cyfitter_cfg.c **** 	}
 297:.\Generated_Source\PSoC4/cyfitter_cfg.c **** 	else
 298:.\Generated_Source\PSoC4/cyfitter_cfg.c **** 	{
 299:.\Generated_Source\PSoC4/cyfitter_cfg.c **** 		regValue &= ~0x80000000u;
 306              		.loc 1 299 0
 307 0010 5B00     		lsl	r3, r3, #1
 308              	.LVL21:
 309 0012 5B08     		lsr	r3, r3, #1
 310              	.LVL22:
 311              	.L13:
 300:.\Generated_Source\PSoC4/cyfitter_cfg.c **** 	}
 301:.\Generated_Source\PSoC4/cyfitter_cfg.c **** 	CY_SET_XTND_REG32((void *)(CYREG_SAR_PUMP_CTRL), regValue);
 312              		.loc 1 301 0
 313 0014 014A     		ldr	r2, .L14
 314 0016 1360     		str	r3, [r2]
 302:.\Generated_Source\PSoC4/cyfitter_cfg.c **** }
 315              		.loc 1 302 0
 316              		@ sp needed
 317 0018 7047     		bx	lr
 318              	.L15:
 319 001a C046     		.align	2
ARM GAS  C:\Users\NRAY~1.PRI\AppData\Local\Temp\ccm5w3V3.s 			page 12


 320              	.L14:
 321 001c 80033A40 		.word	1077543808
 322              		.cfi_endproc
 323              	.LFE7:
 324              		.size	SetAnalogRoutingPumps, .-SetAnalogRoutingPumps
 325              		.section	.text.AnalogSetDefault,"ax",%progbits
 326              		.align	2
 327              		.code	16
 328              		.thumb_func
 329              		.type	AnalogSetDefault, %function
 330              	AnalogSetDefault:
 331              	.LFB6:
 263:.\Generated_Source\PSoC4/cyfitter_cfg.c **** 	CY_SET_XTND_REG32((void CYFAR *)CYREG_CTBM0_DFT_CTRL, 0x00000003u);
 332              		.loc 1 263 0
 333              		.cfi_startproc
 334 0000 08B5     		push	{r3, lr}
 335              		.cfi_def_cfa_offset 8
 336              		.cfi_offset 3, -8
 337              		.cfi_offset 14, -4
 264:.\Generated_Source\PSoC4/cyfitter_cfg.c **** 	CY_SET_XTND_REG32((void CYFAR *)CYREG_CTBM1_DFT_CTRL, 0x00000003u);
 338              		.loc 1 264 0
 339 0002 0323     		mov	r3, #3
 340 0004 094A     		ldr	r2, .L17
 341 0006 1360     		str	r3, [r2]
 265:.\Generated_Source\PSoC4/cyfitter_cfg.c **** 	CY_SET_XTND_REG32((void CYFAR *)CYREG_SAR_CTRL, 0x80000000u);
 342              		.loc 1 265 0
 343 0008 094A     		ldr	r2, .L17+4
 344 000a 1360     		str	r3, [r2]
 266:.\Generated_Source\PSoC4/cyfitter_cfg.c **** 	CY_SET_XTND_REG32((void CYFAR *)CYREG_SAR_MUX_SWITCH0, 0x00030004u);
 345              		.loc 1 266 0
 346 000c 8022     		mov	r2, #128
 347 000e 1206     		lsl	r2, r2, #24
 348 0010 084B     		ldr	r3, .L17+8
 349 0012 1A60     		str	r2, [r3]
 267:.\Generated_Source\PSoC4/cyfitter_cfg.c **** 	CY_SET_XTND_REG32((void CYFAR *)CYREG_SAR_MUX_SWITCH_HW_CTRL, 0x00030004u);
 350              		.loc 1 267 0
 351 0014 084B     		ldr	r3, .L17+12
 352 0016 094A     		ldr	r2, .L17+16
 353 0018 1360     		str	r3, [r2]
 268:.\Generated_Source\PSoC4/cyfitter_cfg.c **** 	CY_SET_XTND_REG32((void CYFAR *)CYREG_PASS_DSAB_DSAB_CTRL, 0x00000000u);
 354              		.loc 1 268 0
 355 001a 094A     		ldr	r2, .L17+20
 356 001c 1360     		str	r3, [r2]
 269:.\Generated_Source\PSoC4/cyfitter_cfg.c **** 	SetAnalogRoutingPumps(1);
 357              		.loc 1 269 0
 358 001e 0022     		mov	r2, #0
 359 0020 084B     		ldr	r3, .L17+24
 360 0022 1A60     		str	r2, [r3]
 270:.\Generated_Source\PSoC4/cyfitter_cfg.c **** }
 361              		.loc 1 270 0
 362 0024 0120     		mov	r0, #1
 363 0026 FFF7FEFF 		bl	SetAnalogRoutingPumps
 364              	.LVL23:
 271:.\Generated_Source\PSoC4/cyfitter_cfg.c **** 
 365              		.loc 1 271 0
 366              		@ sp needed
 367 002a 08BD     		pop	{r3, pc}
ARM GAS  C:\Users\NRAY~1.PRI\AppData\Local\Temp\ccm5w3V3.s 			page 13


 368              	.L18:
 369              		.align	2
 370              	.L17:
 371 002c 30003040 		.word	1076887600
 372 0030 30003140 		.word	1076953136
 373 0034 00003A40 		.word	1077542912
 374 0038 04000300 		.word	196612
 375 003c 00033A40 		.word	1077543680
 376 0040 40033A40 		.word	1077543744
 377 0044 000E3F40 		.word	1077874176
 378              		.cfi_endproc
 379              	.LFE6:
 380              		.size	AnalogSetDefault, .-AnalogSetDefault
 381              		.section	.psocinit
 382              		.align	2
 383              		.global	cyfitter_cfg
 384              		.code	16
 385              		.thumb_func
 386              		.type	cyfitter_cfg, %function
 387              	cyfitter_cfg:
 388              	.LFB8:
 303:.\Generated_Source\PSoC4/cyfitter_cfg.c **** 
 304:.\Generated_Source\PSoC4/cyfitter_cfg.c **** #define CY_AMUX_UNUSED CYREG_CM0_ROM_DWT
 305:.\Generated_Source\PSoC4/cyfitter_cfg.c **** 
 306:.\Generated_Source\PSoC4/cyfitter_cfg.c **** 
 307:.\Generated_Source\PSoC4/cyfitter_cfg.c **** /*******************************************************************************
 308:.\Generated_Source\PSoC4/cyfitter_cfg.c **** * Function Name: cyfitter_cfg
 309:.\Generated_Source\PSoC4/cyfitter_cfg.c **** ********************************************************************************
 310:.\Generated_Source\PSoC4/cyfitter_cfg.c **** * Summary:
 311:.\Generated_Source\PSoC4/cyfitter_cfg.c **** *  This function is called by the start-up code for the selected device. It
 312:.\Generated_Source\PSoC4/cyfitter_cfg.c **** *  performs all of the necessary device configuration based on the design
 313:.\Generated_Source\PSoC4/cyfitter_cfg.c **** *  settings.  This includes settings from the Design Wide Resources (DWR) such
 314:.\Generated_Source\PSoC4/cyfitter_cfg.c **** *  as Clocks and Pins as well as any component configuration that is necessary.
 315:.\Generated_Source\PSoC4/cyfitter_cfg.c **** *
 316:.\Generated_Source\PSoC4/cyfitter_cfg.c **** * Parameters:  
 317:.\Generated_Source\PSoC4/cyfitter_cfg.c **** *   void
 318:.\Generated_Source\PSoC4/cyfitter_cfg.c **** *
 319:.\Generated_Source\PSoC4/cyfitter_cfg.c **** * Return:
 320:.\Generated_Source\PSoC4/cyfitter_cfg.c **** *   void
 321:.\Generated_Source\PSoC4/cyfitter_cfg.c **** *
 322:.\Generated_Source\PSoC4/cyfitter_cfg.c **** *******************************************************************************/
 323:.\Generated_Source\PSoC4/cyfitter_cfg.c **** CY_CFG_SECTION
 324:.\Generated_Source\PSoC4/cyfitter_cfg.c **** void cyfitter_cfg(void)
 325:.\Generated_Source\PSoC4/cyfitter_cfg.c **** {
 389              		.loc 1 325 0
 390              		.cfi_startproc
 391 0118 38B5     		push	{r3, r4, r5, lr}
 392              		.cfi_def_cfa_offset 16
 393              		.cfi_offset 3, -16
 394              		.cfi_offset 4, -12
 395              		.cfi_offset 5, -8
 396              		.cfi_offset 14, -4
 326:.\Generated_Source\PSoC4/cyfitter_cfg.c **** 	/* Disable interrupts by default. Let user enable if/when they want. */
 327:.\Generated_Source\PSoC4/cyfitter_cfg.c **** 	CyGlobalIntDisable;
 397              		.loc 1 327 0
 398              	@ 327 ".\Generated_Source\PSoC4\cyfitter_cfg.c" 1
 399 011a 72B6     		CPSID   i
ARM GAS  C:\Users\NRAY~1.PRI\AppData\Local\Temp\ccm5w3V3.s 			page 14


 400              	@ 0 "" 2
 328:.\Generated_Source\PSoC4/cyfitter_cfg.c **** 
 329:.\Generated_Source\PSoC4/cyfitter_cfg.c **** 	/* Enable the clock in the interrupt controller for the routed interrupts */
 330:.\Generated_Source\PSoC4/cyfitter_cfg.c **** 	CY_SET_REG8((void *)CYREG_UDB_UDBIF_INT_CLK_CTL, 0x01u);
 401              		.loc 1 330 0
 402              		.code	16
 403 011c 0122     		mov	r2, #1
 404 011e 404B     		ldr	r3, .L22
 405 0120 1A70     		strb	r2, [r3]
 406              	.LVL24:
 407              	.LBB3:
 331:.\Generated_Source\PSoC4/cyfitter_cfg.c **** 	{
 332:.\Generated_Source\PSoC4/cyfitter_cfg.c **** 		static const uint32 CYCODE cy_cfg_addr_table[] = {
 333:.\Generated_Source\PSoC4/cyfitter_cfg.c **** 			0x400F0001u, /* Base address: 0x400F0000 Count: 1 */
 334:.\Generated_Source\PSoC4/cyfitter_cfg.c **** 			0x400F3003u, /* Base address: 0x400F3000 Count: 3 */
 335:.\Generated_Source\PSoC4/cyfitter_cfg.c **** 			0x400F3106u, /* Base address: 0x400F3100 Count: 6 */
 336:.\Generated_Source\PSoC4/cyfitter_cfg.c **** 			0x400F3234u, /* Base address: 0x400F3200 Count: 52 */
 337:.\Generated_Source\PSoC4/cyfitter_cfg.c **** 			0x400F3321u, /* Base address: 0x400F3300 Count: 33 */
 338:.\Generated_Source\PSoC4/cyfitter_cfg.c **** 			0x400F400Au, /* Base address: 0x400F4000 Count: 10 */
 339:.\Generated_Source\PSoC4/cyfitter_cfg.c **** 			0x400F4108u, /* Base address: 0x400F4100 Count: 8 */
 340:.\Generated_Source\PSoC4/cyfitter_cfg.c **** 			0x400F4203u, /* Base address: 0x400F4200 Count: 3 */
 341:.\Generated_Source\PSoC4/cyfitter_cfg.c **** 			0x400F4307u, /* Base address: 0x400F4300 Count: 7 */
 342:.\Generated_Source\PSoC4/cyfitter_cfg.c **** 			0x400F6002u, /* Base address: 0x400F6000 Count: 2 */
 343:.\Generated_Source\PSoC4/cyfitter_cfg.c **** 		};
 344:.\Generated_Source\PSoC4/cyfitter_cfg.c **** 
 345:.\Generated_Source\PSoC4/cyfitter_cfg.c **** 		static const cy_cfg_addrvalue_t CYCODE cy_cfg_data_table[] = {
 346:.\Generated_Source\PSoC4/cyfitter_cfg.c **** 			{0x83u, 0x0Du},
 347:.\Generated_Source\PSoC4/cyfitter_cfg.c **** 			{0xD6u, 0x08u},
 348:.\Generated_Source\PSoC4/cyfitter_cfg.c **** 			{0xDBu, 0x04u},
 349:.\Generated_Source\PSoC4/cyfitter_cfg.c **** 			{0xDDu, 0x90u},
 350:.\Generated_Source\PSoC4/cyfitter_cfg.c **** 			{0x5Fu, 0x90u},
 351:.\Generated_Source\PSoC4/cyfitter_cfg.c **** 			{0x64u, 0x01u},
 352:.\Generated_Source\PSoC4/cyfitter_cfg.c **** 			{0x67u, 0x0Au},
 353:.\Generated_Source\PSoC4/cyfitter_cfg.c **** 			{0x87u, 0x90u},
 354:.\Generated_Source\PSoC4/cyfitter_cfg.c **** 			{0xD6u, 0x30u},
 355:.\Generated_Source\PSoC4/cyfitter_cfg.c **** 			{0xD8u, 0x30u},
 356:.\Generated_Source\PSoC4/cyfitter_cfg.c **** 			{0x40u, 0x45u},
 357:.\Generated_Source\PSoC4/cyfitter_cfg.c **** 			{0x49u, 0xFFu},
 358:.\Generated_Source\PSoC4/cyfitter_cfg.c **** 			{0x4Au, 0xFFu},
 359:.\Generated_Source\PSoC4/cyfitter_cfg.c **** 			{0x4Bu, 0xFFu},
 360:.\Generated_Source\PSoC4/cyfitter_cfg.c **** 			{0x4Fu, 0x01u},
 361:.\Generated_Source\PSoC4/cyfitter_cfg.c **** 			{0x50u, 0x18u},
 362:.\Generated_Source\PSoC4/cyfitter_cfg.c **** 			{0x52u, 0x80u},
 363:.\Generated_Source\PSoC4/cyfitter_cfg.c **** 			{0x5Au, 0x08u},
 364:.\Generated_Source\PSoC4/cyfitter_cfg.c **** 			{0x5Bu, 0x09u},
 365:.\Generated_Source\PSoC4/cyfitter_cfg.c **** 			{0x5Du, 0x99u},
 366:.\Generated_Source\PSoC4/cyfitter_cfg.c **** 			{0x5Fu, 0x01u},
 367:.\Generated_Source\PSoC4/cyfitter_cfg.c **** 			{0x60u, 0x40u},
 368:.\Generated_Source\PSoC4/cyfitter_cfg.c **** 			{0x62u, 0x40u},
 369:.\Generated_Source\PSoC4/cyfitter_cfg.c **** 			{0x64u, 0x40u},
 370:.\Generated_Source\PSoC4/cyfitter_cfg.c **** 			{0x65u, 0x40u},
 371:.\Generated_Source\PSoC4/cyfitter_cfg.c **** 			{0x66u, 0x80u},
 372:.\Generated_Source\PSoC4/cyfitter_cfg.c **** 			{0x68u, 0x80u},
 373:.\Generated_Source\PSoC4/cyfitter_cfg.c **** 			{0x6Au, 0x80u},
 374:.\Generated_Source\PSoC4/cyfitter_cfg.c **** 			{0x6Cu, 0x80u},
 375:.\Generated_Source\PSoC4/cyfitter_cfg.c **** 			{0x6Eu, 0x80u},
 376:.\Generated_Source\PSoC4/cyfitter_cfg.c **** 			{0x83u, 0x01u},
ARM GAS  C:\Users\NRAY~1.PRI\AppData\Local\Temp\ccm5w3V3.s 			page 15


 377:.\Generated_Source\PSoC4/cyfitter_cfg.c **** 			{0x9Fu, 0x01u},
 378:.\Generated_Source\PSoC4/cyfitter_cfg.c **** 			{0xB1u, 0x01u},
 379:.\Generated_Source\PSoC4/cyfitter_cfg.c **** 			{0xB7u, 0x01u},
 380:.\Generated_Source\PSoC4/cyfitter_cfg.c **** 			{0xBFu, 0x40u},
 381:.\Generated_Source\PSoC4/cyfitter_cfg.c **** 			{0xC0u, 0x14u},
 382:.\Generated_Source\PSoC4/cyfitter_cfg.c **** 			{0xC5u, 0xECu},
 383:.\Generated_Source\PSoC4/cyfitter_cfg.c **** 			{0xC7u, 0x20u},
 384:.\Generated_Source\PSoC4/cyfitter_cfg.c **** 			{0xC8u, 0x23u},
 385:.\Generated_Source\PSoC4/cyfitter_cfg.c **** 			{0xC9u, 0xFFu},
 386:.\Generated_Source\PSoC4/cyfitter_cfg.c **** 			{0xCAu, 0xFFu},
 387:.\Generated_Source\PSoC4/cyfitter_cfg.c **** 			{0xCBu, 0xFFu},
 388:.\Generated_Source\PSoC4/cyfitter_cfg.c **** 			{0xCDu, 0x83u},
 389:.\Generated_Source\PSoC4/cyfitter_cfg.c **** 			{0xCEu, 0x03u},
 390:.\Generated_Source\PSoC4/cyfitter_cfg.c **** 			{0xCFu, 0x01u},
 391:.\Generated_Source\PSoC4/cyfitter_cfg.c **** 			{0xD0u, 0x18u},
 392:.\Generated_Source\PSoC4/cyfitter_cfg.c **** 			{0xD4u, 0x01u},
 393:.\Generated_Source\PSoC4/cyfitter_cfg.c **** 			{0xD9u, 0x0Bu},
 394:.\Generated_Source\PSoC4/cyfitter_cfg.c **** 			{0xDAu, 0x0Bu},
 395:.\Generated_Source\PSoC4/cyfitter_cfg.c **** 			{0xDBu, 0x0Bu},
 396:.\Generated_Source\PSoC4/cyfitter_cfg.c **** 			{0xDCu, 0x90u},
 397:.\Generated_Source\PSoC4/cyfitter_cfg.c **** 			{0xDDu, 0x99u},
 398:.\Generated_Source\PSoC4/cyfitter_cfg.c **** 			{0xDFu, 0x01u},
 399:.\Generated_Source\PSoC4/cyfitter_cfg.c **** 			{0xE0u, 0x40u},
 400:.\Generated_Source\PSoC4/cyfitter_cfg.c **** 			{0xE2u, 0x40u},
 401:.\Generated_Source\PSoC4/cyfitter_cfg.c **** 			{0xE4u, 0x40u},
 402:.\Generated_Source\PSoC4/cyfitter_cfg.c **** 			{0xE5u, 0x40u},
 403:.\Generated_Source\PSoC4/cyfitter_cfg.c **** 			{0xE6u, 0x80u},
 404:.\Generated_Source\PSoC4/cyfitter_cfg.c **** 			{0xE8u, 0x80u},
 405:.\Generated_Source\PSoC4/cyfitter_cfg.c **** 			{0xEAu, 0x80u},
 406:.\Generated_Source\PSoC4/cyfitter_cfg.c **** 			{0xECu, 0x80u},
 407:.\Generated_Source\PSoC4/cyfitter_cfg.c **** 			{0xEEu, 0x80u},
 408:.\Generated_Source\PSoC4/cyfitter_cfg.c **** 			{0x21u, 0x02u},
 409:.\Generated_Source\PSoC4/cyfitter_cfg.c **** 			{0x22u, 0x40u},
 410:.\Generated_Source\PSoC4/cyfitter_cfg.c **** 			{0x33u, 0x40u},
 411:.\Generated_Source\PSoC4/cyfitter_cfg.c **** 			{0x39u, 0x02u},
 412:.\Generated_Source\PSoC4/cyfitter_cfg.c **** 			{0x41u, 0x01u},
 413:.\Generated_Source\PSoC4/cyfitter_cfg.c **** 			{0x43u, 0x40u},
 414:.\Generated_Source\PSoC4/cyfitter_cfg.c **** 			{0x46u, 0x80u},
 415:.\Generated_Source\PSoC4/cyfitter_cfg.c **** 			{0x49u, 0x05u},
 416:.\Generated_Source\PSoC4/cyfitter_cfg.c **** 			{0x4Eu, 0x02u},
 417:.\Generated_Source\PSoC4/cyfitter_cfg.c **** 			{0x51u, 0x01u},
 418:.\Generated_Source\PSoC4/cyfitter_cfg.c **** 			{0x52u, 0x02u},
 419:.\Generated_Source\PSoC4/cyfitter_cfg.c **** 			{0x59u, 0x05u},
 420:.\Generated_Source\PSoC4/cyfitter_cfg.c **** 			{0x5Au, 0x80u},
 421:.\Generated_Source\PSoC4/cyfitter_cfg.c **** 			{0x5Cu, 0x50u},
 422:.\Generated_Source\PSoC4/cyfitter_cfg.c **** 			{0x5Fu, 0x0Au},
 423:.\Generated_Source\PSoC4/cyfitter_cfg.c **** 			{0x76u, 0x80u},
 424:.\Generated_Source\PSoC4/cyfitter_cfg.c **** 			{0x77u, 0x40u},
 425:.\Generated_Source\PSoC4/cyfitter_cfg.c **** 			{0x78u, 0x01u},
 426:.\Generated_Source\PSoC4/cyfitter_cfg.c **** 			{0x7Fu, 0x05u},
 427:.\Generated_Source\PSoC4/cyfitter_cfg.c **** 			{0x81u, 0x02u},
 428:.\Generated_Source\PSoC4/cyfitter_cfg.c **** 			{0x90u, 0x50u},
 429:.\Generated_Source\PSoC4/cyfitter_cfg.c **** 			{0x93u, 0x0Au},
 430:.\Generated_Source\PSoC4/cyfitter_cfg.c **** 			{0x98u, 0x01u},
 431:.\Generated_Source\PSoC4/cyfitter_cfg.c **** 			{0x9Bu, 0x0Au},
 432:.\Generated_Source\PSoC4/cyfitter_cfg.c **** 			{0xABu, 0x0Au},
 433:.\Generated_Source\PSoC4/cyfitter_cfg.c **** 			{0xB4u, 0x50u},
ARM GAS  C:\Users\NRAY~1.PRI\AppData\Local\Temp\ccm5w3V3.s 			page 16


 434:.\Generated_Source\PSoC4/cyfitter_cfg.c **** 			{0xCCu, 0x08u},
 435:.\Generated_Source\PSoC4/cyfitter_cfg.c **** 			{0xCEu, 0x01u},
 436:.\Generated_Source\PSoC4/cyfitter_cfg.c **** 			{0xD0u, 0x89u},
 437:.\Generated_Source\PSoC4/cyfitter_cfg.c **** 			{0xD2u, 0x10u},
 438:.\Generated_Source\PSoC4/cyfitter_cfg.c **** 			{0xD6u, 0xFBu},
 439:.\Generated_Source\PSoC4/cyfitter_cfg.c **** 			{0xDEu, 0x31u},
 440:.\Generated_Source\PSoC4/cyfitter_cfg.c **** 			{0xE2u, 0x40u},
 441:.\Generated_Source\PSoC4/cyfitter_cfg.c **** 			{0x03u, 0x10u},
 442:.\Generated_Source\PSoC4/cyfitter_cfg.c **** 			{0x07u, 0x40u},
 443:.\Generated_Source\PSoC4/cyfitter_cfg.c **** 			{0x1Au, 0x05u},
 444:.\Generated_Source\PSoC4/cyfitter_cfg.c **** 			{0x6Bu, 0x04u},
 445:.\Generated_Source\PSoC4/cyfitter_cfg.c **** 			{0x6Du, 0x40u},
 446:.\Generated_Source\PSoC4/cyfitter_cfg.c **** 			{0x86u, 0x05u},
 447:.\Generated_Source\PSoC4/cyfitter_cfg.c **** 			{0xC0u, 0x30u},
 448:.\Generated_Source\PSoC4/cyfitter_cfg.c **** 			{0xC6u, 0x40u},
 449:.\Generated_Source\PSoC4/cyfitter_cfg.c **** 			{0xDAu, 0xC0u},
 450:.\Generated_Source\PSoC4/cyfitter_cfg.c **** 			{0xE0u, 0x50u},
 451:.\Generated_Source\PSoC4/cyfitter_cfg.c **** 			{0x83u, 0x04u},
 452:.\Generated_Source\PSoC4/cyfitter_cfg.c **** 			{0x8Du, 0x40u},
 453:.\Generated_Source\PSoC4/cyfitter_cfg.c **** 			{0x95u, 0x40u},
 454:.\Generated_Source\PSoC4/cyfitter_cfg.c **** 			{0x9Fu, 0x04u},
 455:.\Generated_Source\PSoC4/cyfitter_cfg.c **** 			{0xABu, 0x50u},
 456:.\Generated_Source\PSoC4/cyfitter_cfg.c **** 			{0xE2u, 0x80u},
 457:.\Generated_Source\PSoC4/cyfitter_cfg.c **** 			{0xE8u, 0x20u},
 458:.\Generated_Source\PSoC4/cyfitter_cfg.c **** 			{0xECu, 0x80u},
 459:.\Generated_Source\PSoC4/cyfitter_cfg.c **** 			{0x01u, 0x08u},
 460:.\Generated_Source\PSoC4/cyfitter_cfg.c **** 			{0x04u, 0x08u},
 461:.\Generated_Source\PSoC4/cyfitter_cfg.c **** 			{0xC0u, 0x0Cu},
 462:.\Generated_Source\PSoC4/cyfitter_cfg.c **** 			{0x15u, 0x40u},
 463:.\Generated_Source\PSoC4/cyfitter_cfg.c **** 			{0x8Du, 0x40u},
 464:.\Generated_Source\PSoC4/cyfitter_cfg.c **** 			{0xB4u, 0x04u},
 465:.\Generated_Source\PSoC4/cyfitter_cfg.c **** 			{0xB5u, 0x08u},
 466:.\Generated_Source\PSoC4/cyfitter_cfg.c **** 			{0xC4u, 0x01u},
 467:.\Generated_Source\PSoC4/cyfitter_cfg.c **** 			{0xE2u, 0x02u},
 468:.\Generated_Source\PSoC4/cyfitter_cfg.c **** 			{0xEAu, 0x0Au},
 469:.\Generated_Source\PSoC4/cyfitter_cfg.c **** 			{0x02u, 0x01u},
 470:.\Generated_Source\PSoC4/cyfitter_cfg.c **** 			{0x11u, 0x01u},
 471:.\Generated_Source\PSoC4/cyfitter_cfg.c **** 		};
 472:.\Generated_Source\PSoC4/cyfitter_cfg.c **** 
 473:.\Generated_Source\PSoC4/cyfitter_cfg.c **** 
 474:.\Generated_Source\PSoC4/cyfitter_cfg.c **** 
 475:.\Generated_Source\PSoC4/cyfitter_cfg.c **** 		CYPACKED typedef struct {
 476:.\Generated_Source\PSoC4/cyfitter_cfg.c **** 			void CYFAR *address;
 477:.\Generated_Source\PSoC4/cyfitter_cfg.c **** 			uint16 size;
 478:.\Generated_Source\PSoC4/cyfitter_cfg.c **** 		} CYPACKED_ATTR cfg_memset_t;
 479:.\Generated_Source\PSoC4/cyfitter_cfg.c **** 
 480:.\Generated_Source\PSoC4/cyfitter_cfg.c **** 		static const cfg_memset_t CYCODE cfg_memset_list [] = {
 481:.\Generated_Source\PSoC4/cyfitter_cfg.c **** 			/* address, size */
 482:.\Generated_Source\PSoC4/cyfitter_cfg.c **** 			{(void CYFAR *)(CYDEV_UDB_P0_U0_BASE), 1024u},
 483:.\Generated_Source\PSoC4/cyfitter_cfg.c **** 			{(void CYFAR *)(CYDEV_UDB_DSI0_BASE), 1024u},
 484:.\Generated_Source\PSoC4/cyfitter_cfg.c **** 		};
 485:.\Generated_Source\PSoC4/cyfitter_cfg.c **** 
 486:.\Generated_Source\PSoC4/cyfitter_cfg.c **** 		uint8 CYDATA i;
 487:.\Generated_Source\PSoC4/cyfitter_cfg.c **** 
 488:.\Generated_Source\PSoC4/cyfitter_cfg.c **** 		/* Zero out critical memory blocks before beginning configuration */
 489:.\Generated_Source\PSoC4/cyfitter_cfg.c **** 		for (i = 0u; i < (sizeof(cfg_memset_list)/sizeof(cfg_memset_list[0])); i++)
 408              		.loc 1 489 0
ARM GAS  C:\Users\NRAY~1.PRI\AppData\Local\Temp\ccm5w3V3.s 			page 17


 409 0122 0024     		mov	r4, #0
 410 0124 10E0     		b	.L20
 411              	.LVL25:
 412              	.L21:
 413              	.LBB4:
 490:.\Generated_Source\PSoC4/cyfitter_cfg.c **** 		{
 491:.\Generated_Source\PSoC4/cyfitter_cfg.c **** 			const cfg_memset_t CYCODE * CYDATA ms = &cfg_memset_list[i];
 492:.\Generated_Source\PSoC4/cyfitter_cfg.c **** 			CYMEMZERO(ms->address, (size_t)(uint32)(ms->size));
 414              		.loc 1 492 0 discriminator 3
 415 0126 3F48     		ldr	r0, .L22+4
 416 0128 6300     		lsl	r3, r4, #1
 417 012a 1A19     		add	r2, r3, r4
 418 012c 5200     		lsl	r2, r2, #1
 419 012e 8218     		add	r2, r0, r2
 420 0130 9188     		ldrh	r1, [r2, #4]
 421 0132 1B19     		add	r3, r3, r4
 422 0134 5B00     		lsl	r3, r3, #1
 423 0136 1A5A     		ldrh	r2, [r3, r0]
 424 0138 C318     		add	r3, r0, r3
 425 013a 5888     		ldrh	r0, [r3, #2]
 426 013c 0004     		lsl	r0, r0, #16
 427 013e 1043     		orr	r0, r2
 428 0140 FFF7FEFF 		bl	CYMEMZERO
 429              	.LVL26:
 430              	.LBE4:
 489:.\Generated_Source\PSoC4/cyfitter_cfg.c **** 		{
 431              		.loc 1 489 0 discriminator 3
 432 0144 0134     		add	r4, r4, #1
 433              	.LVL27:
 434 0146 E4B2     		uxtb	r4, r4
 435              	.LVL28:
 436              	.L20:
 489:.\Generated_Source\PSoC4/cyfitter_cfg.c **** 		{
 437              		.loc 1 489 0 is_stmt 0 discriminator 1
 438 0148 012C     		cmp	r4, #1
 439 014a ECD9     		bls	.L21
 493:.\Generated_Source\PSoC4/cyfitter_cfg.c **** 		}
 494:.\Generated_Source\PSoC4/cyfitter_cfg.c **** 
 495:.\Generated_Source\PSoC4/cyfitter_cfg.c **** 		cfg_write_bytes32(cy_cfg_addr_table, cy_cfg_data_table);
 440              		.loc 1 495 0 is_stmt 1
 441 014c 3549     		ldr	r1, .L22+4
 442 014e 081C     		mov	r0, r1
 443 0150 0C30     		add	r0, r0, #12
 444 0152 3431     		add	r1, r1, #52
 445 0154 FFF7FEFF 		bl	cfg_write_bytes32
 446              	.LVL29:
 496:.\Generated_Source\PSoC4/cyfitter_cfg.c **** 
 497:.\Generated_Source\PSoC4/cyfitter_cfg.c **** 		/* HSIOM Starting address: CYDEV_HSIOM_BASE */
 498:.\Generated_Source\PSoC4/cyfitter_cfg.c **** 		CY_SET_XTND_REG32((void CYFAR *)(CYDEV_HSIOM_BASE), 0x0F000000u);
 447              		.loc 1 498 0
 448 0158 F022     		mov	r2, #240
 449 015a 1205     		lsl	r2, r2, #20
 450 015c 324B     		ldr	r3, .L22+8
 451 015e 1A60     		str	r2, [r3]
 499:.\Generated_Source\PSoC4/cyfitter_cfg.c **** 		CY_SET_XTND_REG32((void CYFAR *)(CYREG_HSIOM_PORT_SEL2), 0x0000F000u);
 452              		.loc 1 499 0
 453 0160 F022     		mov	r2, #240
ARM GAS  C:\Users\NRAY~1.PRI\AppData\Local\Temp\ccm5w3V3.s 			page 18


 454 0162 1202     		lsl	r2, r2, #8
 455 0164 314B     		ldr	r3, .L22+12
 456 0166 1A60     		str	r2, [r3]
 500:.\Generated_Source\PSoC4/cyfitter_cfg.c **** 		CY_SET_XTND_REG32((void CYFAR *)(CYREG_HSIOM_PORT_SEL3), 0x0000EEFFu);
 457              		.loc 1 500 0
 458 0168 314A     		ldr	r2, .L22+16
 459 016a 324B     		ldr	r3, .L22+20
 460 016c 1A60     		str	r2, [r3]
 501:.\Generated_Source\PSoC4/cyfitter_cfg.c **** 		CY_SET_XTND_REG32((void CYFAR *)(CYREG_HSIOM_PORT_SEL4), 0x00000099u);
 461              		.loc 1 501 0
 462 016e 9922     		mov	r2, #153
 463 0170 314B     		ldr	r3, .L22+24
 464 0172 1A60     		str	r2, [r3]
 502:.\Generated_Source\PSoC4/cyfitter_cfg.c **** 		CY_SET_XTND_REG32((void CYFAR *)(CYREG_HSIOM_PORT_SEL5), 0x000000EEu);
 465              		.loc 1 502 0
 466 0174 5532     		add	r2, r2, #85
 467 0176 314B     		ldr	r3, .L22+28
 468 0178 1A60     		str	r2, [r3]
 503:.\Generated_Source\PSoC4/cyfitter_cfg.c **** 		CY_SET_XTND_REG32((void CYFAR *)(CYREG_HSIOM_PORT_SEL6), 0x00000090u);
 469              		.loc 1 503 0
 470 017a 5E3A     		sub	r2, r2, #94
 471 017c 304B     		ldr	r3, .L22+32
 472 017e 1A60     		str	r2, [r3]
 504:.\Generated_Source\PSoC4/cyfitter_cfg.c **** 
 505:.\Generated_Source\PSoC4/cyfitter_cfg.c **** 		/* UDB_PA_0 Starting address: CYDEV_UDB_PA0_BASE */
 506:.\Generated_Source\PSoC4/cyfitter_cfg.c **** 		CY_SET_XTND_REG32((void CYFAR *)(CYDEV_UDB_PA0_BASE), 0x00990000u);
 473              		.loc 1 506 0
 474 0180 9923     		mov	r3, #153
 475 0182 1B04     		lsl	r3, r3, #16
 476 0184 2F4A     		ldr	r2, .L22+36
 477 0186 1360     		str	r3, [r2]
 507:.\Generated_Source\PSoC4/cyfitter_cfg.c **** 
 508:.\Generated_Source\PSoC4/cyfitter_cfg.c **** 		/* UDB_PA_2 Starting address: CYDEV_UDB_PA2_BASE */
 509:.\Generated_Source\PSoC4/cyfitter_cfg.c **** 		CY_SET_XTND_REG32((void CYFAR *)(CYDEV_UDB_PA2_BASE), 0x00990000u);
 478              		.loc 1 509 0
 479 0188 2F4A     		ldr	r2, .L22+40
 480 018a 1360     		str	r3, [r2]
 510:.\Generated_Source\PSoC4/cyfitter_cfg.c **** 
 511:.\Generated_Source\PSoC4/cyfitter_cfg.c **** 		/* UDB_PA_3 Starting address: CYDEV_UDB_PA3_BASE */
 512:.\Generated_Source\PSoC4/cyfitter_cfg.c **** 		CY_SET_XTND_REG32((void CYFAR *)(CYDEV_UDB_PA3_BASE), 0x00990000u);
 481              		.loc 1 512 0
 482 018c 2F4A     		ldr	r2, .L22+44
 483 018e 1360     		str	r3, [r2]
 513:.\Generated_Source\PSoC4/cyfitter_cfg.c **** 
 514:.\Generated_Source\PSoC4/cyfitter_cfg.c **** 		/* INT_SELECT Starting address: CYDEV_CPUSS_INT_SEL */
 515:.\Generated_Source\PSoC4/cyfitter_cfg.c **** 		CY_SET_XTND_REG32((void CYFAR *)(CYREG_CPUSS_INT_SEL), 0x00000003u);
 484              		.loc 1 515 0
 485 0190 0324     		mov	r4, #3
 486              	.LVL30:
 487 0192 2F4B     		ldr	r3, .L22+48
 488 0194 1C60     		str	r4, [r3]
 516:.\Generated_Source\PSoC4/cyfitter_cfg.c **** 
 517:.\Generated_Source\PSoC4/cyfitter_cfg.c **** 		/* INT_CONFIG Starting address: CYDEV_UDB_INT_CFG */
 518:.\Generated_Source\PSoC4/cyfitter_cfg.c **** 		CY_SET_XTND_REG32((void CYFAR *)(CYREG_UDB_INT_CFG), 0x00000001u);
 489              		.loc 1 518 0
 490 0196 0122     		mov	r2, #1
 491 0198 2E4B     		ldr	r3, .L22+52
ARM GAS  C:\Users\NRAY~1.PRI\AppData\Local\Temp\ccm5w3V3.s 			page 19


 492 019a 1A60     		str	r2, [r3]
 519:.\Generated_Source\PSoC4/cyfitter_cfg.c **** 
 520:.\Generated_Source\PSoC4/cyfitter_cfg.c **** 		/* Enable digital routing */
 521:.\Generated_Source\PSoC4/cyfitter_cfg.c **** 		CY_SET_XTND_REG8((void *)CYREG_UDB_UDBIF_BANK_CTL, CY_GET_XTND_REG8((void *)CYREG_UDB_UDBIF_BANK_
 493              		.loc 1 521 0
 494 019c 2E4A     		ldr	r2, .L22+56
 495 019e 1078     		ldrb	r0, [r2]
 496 01a0 0223     		mov	r3, #2
 497 01a2 0221     		mov	r1, #2
 498 01a4 0143     		orr	r1, r0
 499 01a6 1170     		strb	r1, [r2]
 522:.\Generated_Source\PSoC4/cyfitter_cfg.c **** 
 523:.\Generated_Source\PSoC4/cyfitter_cfg.c **** 		/* Enable UDB array */
 524:.\Generated_Source\PSoC4/cyfitter_cfg.c **** 		CY_SET_XTND_REG8((void *)CYREG_UDB_UDBIF_WAIT_CFG, (uint8)((CY_GET_XTND_REG8((void *)CYREG_UDB_UD
 500              		.loc 1 524 0
 501 01a8 2C4D     		ldr	r5, .L22+60
 502 01aa 2978     		ldrb	r1, [r5]
 503 01ac 3C20     		mov	r0, #60
 504 01ae 8143     		bic	r1, r0
 505 01b0 2838     		sub	r0, r0, #40
 506 01b2 0143     		orr	r1, r0
 507 01b4 2970     		strb	r1, [r5]
 525:.\Generated_Source\PSoC4/cyfitter_cfg.c **** 		CY_SET_XTND_REG8((void *)CYREG_UDB_UDBIF_BANK_CTL, (uint8)(CY_GET_XTND_REG8((void *)CYREG_UDB_UDB
 508              		.loc 1 525 0
 509 01b6 1078     		ldrb	r0, [r2]
 510 01b8 1621     		mov	r1, #22
 511 01ba 0143     		orr	r1, r0
 512 01bc 1170     		strb	r1, [r2]
 513              	.LBE3:
 526:.\Generated_Source\PSoC4/cyfitter_cfg.c **** 	}
 527:.\Generated_Source\PSoC4/cyfitter_cfg.c **** 
 528:.\Generated_Source\PSoC4/cyfitter_cfg.c **** 	/* Perform second pass device configuration. These items must be configured in specific order afte
 529:.\Generated_Source\PSoC4/cyfitter_cfg.c **** 	/* IOPINS0_0 Starting address: CYDEV_GPIO_PRT0_BASE */
 530:.\Generated_Source\PSoC4/cyfitter_cfg.c **** 	CY_SET_XTND_REG32((void CYFAR *)(CYREG_GPIO_PRT0_PC), 0x00040009u);
 514              		.loc 1 530 0
 515 01be 2849     		ldr	r1, .L22+64
 516 01c0 284A     		ldr	r2, .L22+68
 517 01c2 1160     		str	r1, [r2]
 531:.\Generated_Source\PSoC4/cyfitter_cfg.c **** 
 532:.\Generated_Source\PSoC4/cyfitter_cfg.c **** 	/* IOPINS0_2 Starting address: CYDEV_GPIO_PRT2_BASE */
 533:.\Generated_Source\PSoC4/cyfitter_cfg.c **** 	CY_SET_XTND_REG32((void CYFAR *)(CYDEV_GPIO_PRT2_BASE), 0x00000004u);
 518              		.loc 1 533 0
 519 01c4 0422     		mov	r2, #4
 520 01c6 2849     		ldr	r1, .L22+72
 521 01c8 0A60     		str	r2, [r1]
 534:.\Generated_Source\PSoC4/cyfitter_cfg.c **** 	CY_SET_XTND_REG32((void CYFAR *)(CYREG_GPIO_PRT2_PC), 0x00000209u);
 522              		.loc 1 534 0
 523 01ca 2848     		ldr	r0, .L22+76
 524 01cc 2849     		ldr	r1, .L22+80
 525 01ce 0860     		str	r0, [r1]
 535:.\Generated_Source\PSoC4/cyfitter_cfg.c **** 	CY_SET_XTND_REG32((void CYFAR *)(CYREG_GPIO_PRT2_PC2), 0x00000004u);
 526              		.loc 1 535 0
 527 01d0 2849     		ldr	r1, .L22+84
 528 01d2 0A60     		str	r2, [r1]
 536:.\Generated_Source\PSoC4/cyfitter_cfg.c **** 
 537:.\Generated_Source\PSoC4/cyfitter_cfg.c **** 	/* IOPINS0_3 Starting address: CYDEV_GPIO_PRT3_BASE */
 538:.\Generated_Source\PSoC4/cyfitter_cfg.c **** 	CY_SET_XTND_REG32((void CYFAR *)(CYDEV_GPIO_PRT3_BASE), 0x00000002u);
ARM GAS  C:\Users\NRAY~1.PRI\AppData\Local\Temp\ccm5w3V3.s 			page 20


 529              		.loc 1 538 0
 530 01d4 284A     		ldr	r2, .L22+88
 531 01d6 1360     		str	r3, [r2]
 539:.\Generated_Source\PSoC4/cyfitter_cfg.c **** 	CY_SET_XTND_REG32((void CYFAR *)(CYREG_GPIO_PRT3_PC), 0x0024EDB1u);
 532              		.loc 1 539 0
 533 01d8 2849     		ldr	r1, .L22+92
 534 01da 294A     		ldr	r2, .L22+96
 535 01dc 1160     		str	r1, [r2]
 540:.\Generated_Source\PSoC4/cyfitter_cfg.c **** 	CY_SET_XTND_REG32((void CYFAR *)(CYREG_GPIO_PRT3_PC2), 0x00000002u);
 536              		.loc 1 540 0
 537 01de 294A     		ldr	r2, .L22+100
 538 01e0 1360     		str	r3, [r2]
 541:.\Generated_Source\PSoC4/cyfitter_cfg.c **** 
 542:.\Generated_Source\PSoC4/cyfitter_cfg.c **** 	/* IOPINS0_4 Starting address: CYDEV_GPIO_PRT4_BASE */
 543:.\Generated_Source\PSoC4/cyfitter_cfg.c **** 	CY_SET_XTND_REG32((void CYFAR *)(CYDEV_GPIO_PRT4_BASE), 0x00000002u);
 539              		.loc 1 543 0
 540 01e2 294A     		ldr	r2, .L22+104
 541 01e4 1360     		str	r3, [r2]
 544:.\Generated_Source\PSoC4/cyfitter_cfg.c **** 	CY_SET_XTND_REG32((void CYFAR *)(CYREG_GPIO_PRT4_PC), 0x001B6031u);
 542              		.loc 1 544 0
 543 01e6 2949     		ldr	r1, .L22+108
 544 01e8 294A     		ldr	r2, .L22+112
 545 01ea 1160     		str	r1, [r2]
 545:.\Generated_Source\PSoC4/cyfitter_cfg.c **** 	CY_SET_XTND_REG32((void CYFAR *)(CYREG_GPIO_PRT4_PC2), 0x00000002u);
 546              		.loc 1 545 0
 547 01ec 294A     		ldr	r2, .L22+116
 548 01ee 1360     		str	r3, [r2]
 546:.\Generated_Source\PSoC4/cyfitter_cfg.c **** 
 547:.\Generated_Source\PSoC4/cyfitter_cfg.c **** 	/* IOPINS0_5 Starting address: CYDEV_GPIO_PRT5_BASE */
 548:.\Generated_Source\PSoC4/cyfitter_cfg.c **** 	CY_SET_XTND_REG32((void CYFAR *)(CYDEV_GPIO_PRT5_BASE), 0x00000003u);
 549              		.loc 1 548 0
 550 01f0 294A     		ldr	r2, .L22+120
 551 01f2 1460     		str	r4, [r2]
 549:.\Generated_Source\PSoC4/cyfitter_cfg.c **** 	CY_SET_XTND_REG32((void CYFAR *)(CYREG_GPIO_PRT5_PC), 0x00006C24u);
 552              		.loc 1 549 0
 553 01f4 2949     		ldr	r1, .L22+124
 554 01f6 2A4A     		ldr	r2, .L22+128
 555 01f8 1160     		str	r1, [r2]
 550:.\Generated_Source\PSoC4/cyfitter_cfg.c **** 
 551:.\Generated_Source\PSoC4/cyfitter_cfg.c **** 	/* IOPINS0_6 Starting address: CYDEV_GPIO_PRT6_BASE */
 552:.\Generated_Source\PSoC4/cyfitter_cfg.c **** 	CY_SET_XTND_REG32((void CYFAR *)(CYDEV_GPIO_PRT6_BASE), 0x00000002u);
 556              		.loc 1 552 0
 557 01fa 2A4A     		ldr	r2, .L22+132
 558 01fc 1360     		str	r3, [r2]
 553:.\Generated_Source\PSoC4/cyfitter_cfg.c **** 	CY_SET_XTND_REG32((void CYFAR *)(CYREG_GPIO_PRT6_PC), 0x00000030u);
 559              		.loc 1 553 0
 560 01fe 3021     		mov	r1, #48
 561 0200 294A     		ldr	r2, .L22+136
 562 0202 1160     		str	r1, [r2]
 554:.\Generated_Source\PSoC4/cyfitter_cfg.c **** 	CY_SET_XTND_REG32((void CYFAR *)(CYREG_GPIO_PRT6_PC2), 0x00000002u);
 563              		.loc 1 554 0
 564 0204 294A     		ldr	r2, .L22+140
 565 0206 1360     		str	r3, [r2]
 555:.\Generated_Source\PSoC4/cyfitter_cfg.c **** 
 556:.\Generated_Source\PSoC4/cyfitter_cfg.c **** 	/* IOPINS0_7 Starting address: CYDEV_GPIO_PRT7_BASE */
 557:.\Generated_Source\PSoC4/cyfitter_cfg.c **** 	CY_SET_XTND_REG32((void CYFAR *)(CYDEV_GPIO_PRT7_BASE), 0x00000002u);
 566              		.loc 1 557 0
ARM GAS  C:\Users\NRAY~1.PRI\AppData\Local\Temp\ccm5w3V3.s 			page 21


 567 0208 294A     		ldr	r2, .L22+144
 568 020a 1360     		str	r3, [r2]
 558:.\Generated_Source\PSoC4/cyfitter_cfg.c **** 	CY_SET_XTND_REG32((void CYFAR *)(CYREG_GPIO_PRT7_PC), 0x00000008u);
 569              		.loc 1 558 0
 570 020c 0633     		add	r3, r3, #6
 571 020e 294A     		ldr	r2, .L22+148
 572 0210 1360     		str	r3, [r2]
 559:.\Generated_Source\PSoC4/cyfitter_cfg.c **** 	CY_SET_XTND_REG32((void CYFAR *)(CYREG_GPIO_PRT7_INTR_CFG), 0x00000008u);
 573              		.loc 1 559 0
 574 0212 294A     		ldr	r2, .L22+152
 575 0214 1360     		str	r3, [r2]
 560:.\Generated_Source\PSoC4/cyfitter_cfg.c **** 
 561:.\Generated_Source\PSoC4/cyfitter_cfg.c **** 
 562:.\Generated_Source\PSoC4/cyfitter_cfg.c **** 	/* Setup clocks based on selections from Clock DWR */
 563:.\Generated_Source\PSoC4/cyfitter_cfg.c **** 	ClockSetup();
 576              		.loc 1 563 0
 577 0216 FFF7F3FE 		bl	ClockSetup
 578              	.LVL31:
 564:.\Generated_Source\PSoC4/cyfitter_cfg.c **** 
 565:.\Generated_Source\PSoC4/cyfitter_cfg.c **** 	/* Perform basic analog initialization to defaults */
 566:.\Generated_Source\PSoC4/cyfitter_cfg.c **** 	AnalogSetDefault();
 579              		.loc 1 566 0
 580 021a FFF7FEFF 		bl	AnalogSetDefault
 581              	.LVL32:
 567:.\Generated_Source\PSoC4/cyfitter_cfg.c **** 
 568:.\Generated_Source\PSoC4/cyfitter_cfg.c **** }
 582              		.loc 1 568 0
 583              		@ sp needed
 584 021e 38BD     		pop	{r3, r4, r5, pc}
 585              	.L23:
 586              		.align	2
 587              	.L22:
 588 0220 1C700F40 		.word	1074753564
 589 0224 00000000 		.word	.LANCHOR0
 590 0228 00000240 		.word	1073872896
 591 022c 00020240 		.word	1073873408
 592 0230 FFEE0000 		.word	61183
 593 0234 00030240 		.word	1073873664
 594 0238 00040240 		.word	1073873920
 595 023c 00050240 		.word	1073874176
 596 0240 00060240 		.word	1073874432
 597 0244 00500F40 		.word	1074745344
 598 0248 20500F40 		.word	1074745376
 599 024c 30500F40 		.word	1074745392
 600 0250 20001040 		.word	1074790432
 601 0254 00800F40 		.word	1074757632
 602 0258 00700F40 		.word	1074753536
 603 025c 01700F40 		.word	1074753537
 604 0260 09000400 		.word	262153
 605 0264 08000440 		.word	1074003976
 606 0268 00020440 		.word	1074004480
 607 026c 09020000 		.word	521
 608 0270 08020440 		.word	1074004488
 609 0274 18020440 		.word	1074004504
 610 0278 00030440 		.word	1074004736
 611 027c B1ED2400 		.word	2420145
 612 0280 08030440 		.word	1074004744
ARM GAS  C:\Users\NRAY~1.PRI\AppData\Local\Temp\ccm5w3V3.s 			page 22


 613 0284 18030440 		.word	1074004760
 614 0288 00040440 		.word	1074004992
 615 028c 31601B00 		.word	1794097
 616 0290 08040440 		.word	1074005000
 617 0294 18040440 		.word	1074005016
 618 0298 00050440 		.word	1074005248
 619 029c 246C0000 		.word	27684
 620 02a0 08050440 		.word	1074005256
 621 02a4 00060440 		.word	1074005504
 622 02a8 08060440 		.word	1074005512
 623 02ac 18060440 		.word	1074005528
 624 02b0 00070440 		.word	1074005760
 625 02b4 08070440 		.word	1074005768
 626 02b8 0C070440 		.word	1074005772
 627              		.cfi_endproc
 628              	.LFE8:
 629              		.size	cyfitter_cfg, .-cyfitter_cfg
 630              		.section	.rodata
 631              		.align	2
 632              		.set	.LANCHOR0,. + 0
 633              		.type	cfg_memset_list.4778, %object
 634              		.size	cfg_memset_list.4778, 12
 635              	cfg_memset_list.4778:
 636 0000 00300F40 		.word	1074737152
 637 0004 0004     		.short	1024
 638 0006 00400F40 		.4byte	1074741248
 639 000a 0004     		.short	1024
 640              		.type	cy_cfg_addr_table.4772, %object
 641              		.size	cy_cfg_addr_table.4772, 40
 642              	cy_cfg_addr_table.4772:
 643 000c 01000F40 		.word	1074724865
 644 0010 03300F40 		.word	1074737155
 645 0014 06310F40 		.word	1074737414
 646 0018 34320F40 		.word	1074737716
 647 001c 21330F40 		.word	1074737953
 648 0020 0A400F40 		.word	1074741258
 649 0024 08410F40 		.word	1074741512
 650 0028 03420F40 		.word	1074741763
 651 002c 07430F40 		.word	1074742023
 652 0030 02600F40 		.word	1074749442
 653              		.type	cy_cfg_data_table.4773, %object
 654              		.size	cy_cfg_data_table.4773, 250
 655              	cy_cfg_data_table.4773:
 656 0034 83       		.byte	-125
 657 0035 0D       		.byte	13
 658 0036 D6       		.byte	-42
 659 0037 08       		.byte	8
 660 0038 DB       		.byte	-37
 661 0039 04       		.byte	4
 662 003a DD       		.byte	-35
 663 003b 90       		.byte	-112
 664 003c 5F       		.byte	95
 665 003d 90       		.byte	-112
 666 003e 64       		.byte	100
 667 003f 01       		.byte	1
 668 0040 67       		.byte	103
 669 0041 0A       		.byte	10
ARM GAS  C:\Users\NRAY~1.PRI\AppData\Local\Temp\ccm5w3V3.s 			page 23


 670 0042 87       		.byte	-121
 671 0043 90       		.byte	-112
 672 0044 D6       		.byte	-42
 673 0045 30       		.byte	48
 674 0046 D8       		.byte	-40
 675 0047 30       		.byte	48
 676 0048 40       		.byte	64
 677 0049 45       		.byte	69
 678 004a 49       		.byte	73
 679 004b FF       		.byte	-1
 680 004c 4A       		.byte	74
 681 004d FF       		.byte	-1
 682 004e 4B       		.byte	75
 683 004f FF       		.byte	-1
 684 0050 4F       		.byte	79
 685 0051 01       		.byte	1
 686 0052 50       		.byte	80
 687 0053 18       		.byte	24
 688 0054 52       		.byte	82
 689 0055 80       		.byte	-128
 690 0056 5A       		.byte	90
 691 0057 08       		.byte	8
 692 0058 5B       		.byte	91
 693 0059 09       		.byte	9
 694 005a 5D       		.byte	93
 695 005b 99       		.byte	-103
 696 005c 5F       		.byte	95
 697 005d 01       		.byte	1
 698 005e 60       		.byte	96
 699 005f 40       		.byte	64
 700 0060 62       		.byte	98
 701 0061 40       		.byte	64
 702 0062 64       		.byte	100
 703 0063 40       		.byte	64
 704 0064 65       		.byte	101
 705 0065 40       		.byte	64
 706 0066 66       		.byte	102
 707 0067 80       		.byte	-128
 708 0068 68       		.byte	104
 709 0069 80       		.byte	-128
 710 006a 6A       		.byte	106
 711 006b 80       		.byte	-128
 712 006c 6C       		.byte	108
 713 006d 80       		.byte	-128
 714 006e 6E       		.byte	110
 715 006f 80       		.byte	-128
 716 0070 83       		.byte	-125
 717 0071 01       		.byte	1
 718 0072 9F       		.byte	-97
 719 0073 01       		.byte	1
 720 0074 B1       		.byte	-79
 721 0075 01       		.byte	1
 722 0076 B7       		.byte	-73
 723 0077 01       		.byte	1
 724 0078 BF       		.byte	-65
 725 0079 40       		.byte	64
 726 007a C0       		.byte	-64
ARM GAS  C:\Users\NRAY~1.PRI\AppData\Local\Temp\ccm5w3V3.s 			page 24


 727 007b 14       		.byte	20
 728 007c C5       		.byte	-59
 729 007d EC       		.byte	-20
 730 007e C7       		.byte	-57
 731 007f 20       		.byte	32
 732 0080 C8       		.byte	-56
 733 0081 23       		.byte	35
 734 0082 C9       		.byte	-55
 735 0083 FF       		.byte	-1
 736 0084 CA       		.byte	-54
 737 0085 FF       		.byte	-1
 738 0086 CB       		.byte	-53
 739 0087 FF       		.byte	-1
 740 0088 CD       		.byte	-51
 741 0089 83       		.byte	-125
 742 008a CE       		.byte	-50
 743 008b 03       		.byte	3
 744 008c CF       		.byte	-49
 745 008d 01       		.byte	1
 746 008e D0       		.byte	-48
 747 008f 18       		.byte	24
 748 0090 D4       		.byte	-44
 749 0091 01       		.byte	1
 750 0092 D9       		.byte	-39
 751 0093 0B       		.byte	11
 752 0094 DA       		.byte	-38
 753 0095 0B       		.byte	11
 754 0096 DB       		.byte	-37
 755 0097 0B       		.byte	11
 756 0098 DC       		.byte	-36
 757 0099 90       		.byte	-112
 758 009a DD       		.byte	-35
 759 009b 99       		.byte	-103
 760 009c DF       		.byte	-33
 761 009d 01       		.byte	1
 762 009e E0       		.byte	-32
 763 009f 40       		.byte	64
 764 00a0 E2       		.byte	-30
 765 00a1 40       		.byte	64
 766 00a2 E4       		.byte	-28
 767 00a3 40       		.byte	64
 768 00a4 E5       		.byte	-27
 769 00a5 40       		.byte	64
 770 00a6 E6       		.byte	-26
 771 00a7 80       		.byte	-128
 772 00a8 E8       		.byte	-24
 773 00a9 80       		.byte	-128
 774 00aa EA       		.byte	-22
 775 00ab 80       		.byte	-128
 776 00ac EC       		.byte	-20
 777 00ad 80       		.byte	-128
 778 00ae EE       		.byte	-18
 779 00af 80       		.byte	-128
 780 00b0 21       		.byte	33
 781 00b1 02       		.byte	2
 782 00b2 22       		.byte	34
 783 00b3 40       		.byte	64
ARM GAS  C:\Users\NRAY~1.PRI\AppData\Local\Temp\ccm5w3V3.s 			page 25


 784 00b4 33       		.byte	51
 785 00b5 40       		.byte	64
 786 00b6 39       		.byte	57
 787 00b7 02       		.byte	2
 788 00b8 41       		.byte	65
 789 00b9 01       		.byte	1
 790 00ba 43       		.byte	67
 791 00bb 40       		.byte	64
 792 00bc 46       		.byte	70
 793 00bd 80       		.byte	-128
 794 00be 49       		.byte	73
 795 00bf 05       		.byte	5
 796 00c0 4E       		.byte	78
 797 00c1 02       		.byte	2
 798 00c2 51       		.byte	81
 799 00c3 01       		.byte	1
 800 00c4 52       		.byte	82
 801 00c5 02       		.byte	2
 802 00c6 59       		.byte	89
 803 00c7 05       		.byte	5
 804 00c8 5A       		.byte	90
 805 00c9 80       		.byte	-128
 806 00ca 5C       		.byte	92
 807 00cb 50       		.byte	80
 808 00cc 5F       		.byte	95
 809 00cd 0A       		.byte	10
 810 00ce 76       		.byte	118
 811 00cf 80       		.byte	-128
 812 00d0 77       		.byte	119
 813 00d1 40       		.byte	64
 814 00d2 78       		.byte	120
 815 00d3 01       		.byte	1
 816 00d4 7F       		.byte	127
 817 00d5 05       		.byte	5
 818 00d6 81       		.byte	-127
 819 00d7 02       		.byte	2
 820 00d8 90       		.byte	-112
 821 00d9 50       		.byte	80
 822 00da 93       		.byte	-109
 823 00db 0A       		.byte	10
 824 00dc 98       		.byte	-104
 825 00dd 01       		.byte	1
 826 00de 9B       		.byte	-101
 827 00df 0A       		.byte	10
 828 00e0 AB       		.byte	-85
 829 00e1 0A       		.byte	10
 830 00e2 B4       		.byte	-76
 831 00e3 50       		.byte	80
 832 00e4 CC       		.byte	-52
 833 00e5 08       		.byte	8
 834 00e6 CE       		.byte	-50
 835 00e7 01       		.byte	1
 836 00e8 D0       		.byte	-48
 837 00e9 89       		.byte	-119
 838 00ea D2       		.byte	-46
 839 00eb 10       		.byte	16
 840 00ec D6       		.byte	-42
ARM GAS  C:\Users\NRAY~1.PRI\AppData\Local\Temp\ccm5w3V3.s 			page 26


 841 00ed FB       		.byte	-5
 842 00ee DE       		.byte	-34
 843 00ef 31       		.byte	49
 844 00f0 E2       		.byte	-30
 845 00f1 40       		.byte	64
 846 00f2 03       		.byte	3
 847 00f3 10       		.byte	16
 848 00f4 07       		.byte	7
 849 00f5 40       		.byte	64
 850 00f6 1A       		.byte	26
 851 00f7 05       		.byte	5
 852 00f8 6B       		.byte	107
 853 00f9 04       		.byte	4
 854 00fa 6D       		.byte	109
 855 00fb 40       		.byte	64
 856 00fc 86       		.byte	-122
 857 00fd 05       		.byte	5
 858 00fe C0       		.byte	-64
 859 00ff 30       		.byte	48
 860 0100 C6       		.byte	-58
 861 0101 40       		.byte	64
 862 0102 DA       		.byte	-38
 863 0103 C0       		.byte	-64
 864 0104 E0       		.byte	-32
 865 0105 50       		.byte	80
 866 0106 83       		.byte	-125
 867 0107 04       		.byte	4
 868 0108 8D       		.byte	-115
 869 0109 40       		.byte	64
 870 010a 95       		.byte	-107
 871 010b 40       		.byte	64
 872 010c 9F       		.byte	-97
 873 010d 04       		.byte	4
 874 010e AB       		.byte	-85
 875 010f 50       		.byte	80
 876 0110 E2       		.byte	-30
 877 0111 80       		.byte	-128
 878 0112 E8       		.byte	-24
 879 0113 20       		.byte	32
 880 0114 EC       		.byte	-20
 881 0115 80       		.byte	-128
 882 0116 01       		.byte	1
 883 0117 08       		.byte	8
 884 0118 04       		.byte	4
 885 0119 08       		.byte	8
 886 011a C0       		.byte	-64
 887 011b 0C       		.byte	12
 888 011c 15       		.byte	21
 889 011d 40       		.byte	64
 890 011e 8D       		.byte	-115
 891 011f 40       		.byte	64
 892 0120 B4       		.byte	-76
 893 0121 04       		.byte	4
 894 0122 B5       		.byte	-75
 895 0123 08       		.byte	8
 896 0124 C4       		.byte	-60
 897 0125 01       		.byte	1
ARM GAS  C:\Users\NRAY~1.PRI\AppData\Local\Temp\ccm5w3V3.s 			page 27


 898 0126 E2       		.byte	-30
 899 0127 02       		.byte	2
 900 0128 EA       		.byte	-22
 901 0129 0A       		.byte	10
 902 012a 02       		.byte	2
 903 012b 01       		.byte	1
 904 012c 11       		.byte	17
 905 012d 01       		.byte	1
 906 012e 0000     		.text
 907              	.Letext0:
 908              		.file 2 "c:\\program files (x86)\\cypress\\psoc creator\\3.3\\psoc creator\\import\\gnu\\arm\\4.9.
 909              		.file 3 ".\\Generated_Source\\PSoC4\\cytypes.h"
 910              		.file 4 ".\\Generated_Source\\PSoC4\\CyLFClk.h"
 911              		.file 5 ".\\Generated_Source\\PSoC4\\CyLib.h"